
build\dm442_stepper_promini328.elf:     file format elf32-avr

Sections:
Idx Name          Size      VMA       LMA       File off  Algn
  0 .data         000000da  00800100  000025a8  0000263c  2**0
                  CONTENTS, ALLOC, LOAD, DATA
  1 .text         000025a8  00000000  00000000  00000094  2**1
                  CONTENTS, ALLOC, LOAD, READONLY, CODE
  2 .bss          000000f3  008001da  008001da  00002716  2**0
                  ALLOC

Disassembly of section .text:

00000000 <.text>:
       0:	0c 94 62 00 	jmp	0xc4	;  0xc4
       4:	0c 94 8a 00 	jmp	0x114	;  0x114
       8:	0c 94 8a 00 	jmp	0x114	;  0x114
       c:	0c 94 8a 00 	jmp	0x114	;  0x114
      10:	0c 94 8a 00 	jmp	0x114	;  0x114
      14:	0c 94 8a 00 	jmp	0x114	;  0x114
      18:	0c 94 8a 00 	jmp	0x114	;  0x114
      1c:	0c 94 8a 00 	jmp	0x114	;  0x114
      20:	0c 94 8a 00 	jmp	0x114	;  0x114
      24:	0c 94 8a 00 	jmp	0x114	;  0x114
      28:	0c 94 8a 00 	jmp	0x114	;  0x114
      2c:	0c 94 8a 00 	jmp	0x114	;  0x114
      30:	0c 94 8a 00 	jmp	0x114	;  0x114
      34:	0c 94 8a 00 	jmp	0x114	;  0x114
      38:	0c 94 8a 00 	jmp	0x114	;  0x114
      3c:	0c 94 8a 00 	jmp	0x114	;  0x114
      40:	0c 94 ec 0c 	jmp	0x19d8	;  0x19d8
      44:	0c 94 8a 00 	jmp	0x114	;  0x114
      48:	0c 94 79 08 	jmp	0x10f2	;  0x10f2
      4c:	0c 94 c7 08 	jmp	0x118e	;  0x118e
      50:	0c 94 8a 00 	jmp	0x114	;  0x114
      54:	0c 94 8a 00 	jmp	0x114	;  0x114
      58:	0c 94 8a 00 	jmp	0x114	;  0x114
      5c:	0c 94 8a 00 	jmp	0x114	;  0x114
      60:	0c 94 8a 00 	jmp	0x114	;  0x114
      64:	0c 94 8a 00 	jmp	0x114	;  0x114
      68:	00 00       	nop
      6a:	00 00       	nop
      6c:	24 00       	.word	0x0024	; ????
      6e:	27 00       	.word	0x0027	; ????
      70:	2a 00       	.word	0x002a	; ????
      72:	00 00       	nop
      74:	00 00       	nop
      76:	25 00       	.word	0x0025	; ????
      78:	28 00       	.word	0x0028	; ????
      7a:	2b 00       	.word	0x002b	; ????
      7c:	00 00       	nop
      7e:	00 00       	nop
      80:	23 00       	.word	0x0023	; ????
      82:	26 00       	.word	0x0026	; ????
      84:	29 00       	.word	0x0029	; ????
      86:	04 04       	cpc	r0, r4
      88:	04 04       	cpc	r0, r4
      8a:	04 04       	cpc	r0, r4
      8c:	04 04       	cpc	r0, r4
      8e:	02 02       	muls	r16, r18
      90:	02 02       	muls	r16, r18
      92:	02 02       	muls	r16, r18
      94:	03 03       	mulsu	r16, r19
      96:	03 03       	mulsu	r16, r19
      98:	03 03       	mulsu	r16, r19
      9a:	01 02       	muls	r16, r17
      9c:	04 08       	sbc	r0, r4
      9e:	10 20       	and	r1, r0
      a0:	40 80       	ld	r4, Z
      a2:	01 02       	muls	r16, r17
      a4:	04 08       	sbc	r0, r4
      a6:	10 20       	and	r1, r0
      a8:	01 02       	muls	r16, r17
      aa:	04 08       	sbc	r0, r4
      ac:	10 20       	and	r1, r0
      ae:	00 00       	nop
      b0:	00 07       	cpc	r16, r16
      b2:	00 02       	muls	r16, r16
      b4:	01 00       	.word	0x0001	; ????
      b6:	00 03       	mulsu	r16, r16
      b8:	04 06       	cpc	r0, r20
	...
      c2:	33 0a       	sbc	r3, r19
      c4:	11 24       	eor	r1, r1
      c6:	1f be       	out	0x3f, r1	; 63
      c8:	cf ef       	ldi	r28, 0xFF	; 255
      ca:	d8 e0       	ldi	r29, 0x08	; 8
      cc:	de bf       	out	0x3e, r29	; 62
      ce:	cd bf       	out	0x3d, r28	; 61
      d0:	11 e0       	ldi	r17, 0x01	; 1
      d2:	a0 e0       	ldi	r26, 0x00	; 0
      d4:	b1 e0       	ldi	r27, 0x01	; 1
      d6:	e8 ea       	ldi	r30, 0xA8	; 168
      d8:	f5 e2       	ldi	r31, 0x25	; 37
      da:	02 c0       	rjmp	.+4      	;  0xe0
      dc:	05 90       	lpm	r0, Z+
      de:	0d 92       	st	X+, r0
      e0:	aa 3d       	cpi	r26, 0xDA	; 218
      e2:	b1 07       	cpc	r27, r17
      e4:	d9 f7       	brne	.-10     	;  0xdc
      e6:	12 e0       	ldi	r17, 0x02	; 2
      e8:	aa ed       	ldi	r26, 0xDA	; 218
      ea:	b1 e0       	ldi	r27, 0x01	; 1
      ec:	01 c0       	rjmp	.+2      	;  0xf0
      ee:	1d 92       	st	X+, r1
      f0:	ad 3c       	cpi	r26, 0xCD	; 205
      f2:	b1 07       	cpc	r27, r17
      f4:	e1 f7       	brne	.-8      	;  0xee
      f6:	10 e0       	ldi	r17, 0x00	; 0
      f8:	c4 ec       	ldi	r28, 0xC4	; 196
      fa:	d0 e0       	ldi	r29, 0x00	; 0
      fc:	04 c0       	rjmp	.+8      	;  0x106
      fe:	22 97       	sbiw	r28, 0x02	; 2
     100:	fe 01       	movw	r30, r28
     102:	0e 94 97 12 	call	0x252e	;  0x252e
     106:	c2 3c       	cpi	r28, 0xC2	; 194
     108:	d1 07       	cpc	r29, r17
     10a:	c9 f7       	brne	.-14     	;  0xfe
     10c:	0e 94 89 0a 	call	0x1512	;  0x1512
     110:	0c 94 d2 12 	jmp	0x25a4	;  0x25a4
     114:	0c 94 00 00 	jmp	0	;  0x0
     118:	cf 93       	push	r28
     11a:	df 93       	push	r29
     11c:	bc 01       	movw	r22, r24
     11e:	82 30       	cpi	r24, 0x02	; 2
     120:	91 05       	cpc	r25, r1
     122:	10 f4       	brcc	.+4      	;  0x128
     124:	62 e0       	ldi	r22, 0x02	; 2
     126:	70 e0       	ldi	r23, 0x00	; 0
     128:	a0 91 cb 02 	lds	r26, 0x02CB
     12c:	b0 91 cc 02 	lds	r27, 0x02CC
     130:	ed 01       	movw	r28, r26
     132:	e0 e0       	ldi	r30, 0x00	; 0
     134:	f0 e0       	ldi	r31, 0x00	; 0
     136:	40 e0       	ldi	r20, 0x00	; 0
     138:	50 e0       	ldi	r21, 0x00	; 0
     13a:	21 c0       	rjmp	.+66     	;  0x17e
     13c:	88 81       	ld	r24, Y
     13e:	99 81       	ldd	r25, Y+1	; 0x01
     140:	86 17       	cp	r24, r22
     142:	97 07       	cpc	r25, r23
     144:	69 f4       	brne	.+26     	;  0x160
     146:	8a 81       	ldd	r24, Y+2	; 0x02
     148:	9b 81       	ldd	r25, Y+3	; 0x03
     14a:	30 97       	sbiw	r30, 0x00	; 0
     14c:	19 f0       	breq	.+6      	;  0x154
     14e:	93 83       	std	Z+3, r25	; 0x03
     150:	82 83       	std	Z+2, r24	; 0x02
     152:	04 c0       	rjmp	.+8      	;  0x15c
     154:	90 93 cc 02 	sts	0x02CC, r25
     158:	80 93 cb 02 	sts	0x02CB, r24
     15c:	fe 01       	movw	r30, r28
     15e:	34 c0       	rjmp	.+104    	;  0x1c8
     160:	68 17       	cp	r22, r24
     162:	79 07       	cpc	r23, r25
     164:	38 f4       	brcc	.+14     	;  0x174
     166:	41 15       	cp	r20, r1
     168:	51 05       	cpc	r21, r1
     16a:	19 f0       	breq	.+6      	;  0x172
     16c:	84 17       	cp	r24, r20
     16e:	95 07       	cpc	r25, r21
     170:	08 f4       	brcc	.+2      	;  0x174
     172:	ac 01       	movw	r20, r24
     174:	fe 01       	movw	r30, r28
     176:	8a 81       	ldd	r24, Y+2	; 0x02
     178:	9b 81       	ldd	r25, Y+3	; 0x03
     17a:	9c 01       	movw	r18, r24
     17c:	e9 01       	movw	r28, r18
     17e:	20 97       	sbiw	r28, 0x00	; 0
     180:	e9 f6       	brne	.-70     	;  0x13c
     182:	41 15       	cp	r20, r1
     184:	51 05       	cpc	r21, r1
     186:	a9 f1       	breq	.+106    	;  0x1f2
     188:	ca 01       	movw	r24, r20
     18a:	86 1b       	sub	r24, r22
     18c:	97 0b       	sbc	r25, r23
     18e:	04 97       	sbiw	r24, 0x04	; 4
     190:	08 f4       	brcc	.+2      	;  0x194
     192:	ba 01       	movw	r22, r20
     194:	e0 e0       	ldi	r30, 0x00	; 0
     196:	f0 e0       	ldi	r31, 0x00	; 0
     198:	2a c0       	rjmp	.+84     	;  0x1ee
     19a:	8d 91       	ld	r24, X+
     19c:	9c 91       	ld	r25, X
     19e:	11 97       	sbiw	r26, 0x01	; 1
     1a0:	84 17       	cp	r24, r20
     1a2:	95 07       	cpc	r25, r21
     1a4:	f9 f4       	brne	.+62     	;  0x1e4
     1a6:	64 17       	cp	r22, r20
     1a8:	75 07       	cpc	r23, r21
     1aa:	81 f4       	brne	.+32     	;  0x1cc
     1ac:	12 96       	adiw	r26, 0x02	; 2
     1ae:	8d 91       	ld	r24, X+
     1b0:	9c 91       	ld	r25, X
     1b2:	13 97       	sbiw	r26, 0x03	; 3
     1b4:	30 97       	sbiw	r30, 0x00	; 0
     1b6:	19 f0       	breq	.+6      	;  0x1be
     1b8:	93 83       	std	Z+3, r25	; 0x03
     1ba:	82 83       	std	Z+2, r24	; 0x02
     1bc:	04 c0       	rjmp	.+8      	;  0x1c6
     1be:	90 93 cc 02 	sts	0x02CC, r25
     1c2:	80 93 cb 02 	sts	0x02CB, r24
     1c6:	fd 01       	movw	r30, r26
     1c8:	32 96       	adiw	r30, 0x02	; 2
     1ca:	4c c0       	rjmp	.+152    	;  0x264
     1cc:	ca 01       	movw	r24, r20
     1ce:	86 1b       	sub	r24, r22
     1d0:	97 0b       	sbc	r25, r23
     1d2:	fd 01       	movw	r30, r26
     1d4:	e8 0f       	add	r30, r24
     1d6:	f9 1f       	adc	r31, r25
     1d8:	61 93       	st	Z+, r22
     1da:	71 93       	st	Z+, r23
     1dc:	02 97       	sbiw	r24, 0x02	; 2
     1de:	8d 93       	st	X+, r24
     1e0:	9c 93       	st	X, r25
     1e2:	40 c0       	rjmp	.+128    	;  0x264
     1e4:	fd 01       	movw	r30, r26
     1e6:	82 81       	ldd	r24, Z+2	; 0x02
     1e8:	93 81       	ldd	r25, Z+3	; 0x03
     1ea:	9c 01       	movw	r18, r24
     1ec:	d9 01       	movw	r26, r18
     1ee:	10 97       	sbiw	r26, 0x00	; 0
     1f0:	a1 f6       	brne	.-88     	;  0x19a
     1f2:	80 91 c9 02 	lds	r24, 0x02C9
     1f6:	90 91 ca 02 	lds	r25, 0x02CA
     1fa:	89 2b       	or	r24, r25
     1fc:	41 f4       	brne	.+16     	;  0x20e
     1fe:	80 91 ba 01 	lds	r24, 0x01BA
     202:	90 91 bb 01 	lds	r25, 0x01BB
     206:	90 93 ca 02 	sts	0x02CA, r25
     20a:	80 93 c9 02 	sts	0x02C9, r24
     20e:	40 91 bc 01 	lds	r20, 0x01BC
     212:	50 91 bd 01 	lds	r21, 0x01BD
     216:	41 15       	cp	r20, r1
     218:	51 05       	cpc	r21, r1
     21a:	41 f4       	brne	.+16     	;  0x22c
     21c:	4d b7       	in	r20, 0x3d	; 61
     21e:	5e b7       	in	r21, 0x3e	; 62
     220:	80 91 b8 01 	lds	r24, 0x01B8
     224:	90 91 b9 01 	lds	r25, 0x01B9
     228:	48 1b       	sub	r20, r24
     22a:	59 0b       	sbc	r21, r25
     22c:	20 91 c9 02 	lds	r18, 0x02C9
     230:	30 91 ca 02 	lds	r19, 0x02CA
     234:	ca 01       	movw	r24, r20
     236:	82 1b       	sub	r24, r18
     238:	93 0b       	sbc	r25, r19
     23a:	86 17       	cp	r24, r22
     23c:	97 07       	cpc	r25, r23
     23e:	80 f0       	brcs	.+32     	;  0x260
     240:	ab 01       	movw	r20, r22
     242:	4e 5f       	subi	r20, 0xFE	; 254
     244:	5f 4f       	sbci	r21, 0xFF	; 255
     246:	84 17       	cp	r24, r20
     248:	95 07       	cpc	r25, r21
     24a:	50 f0       	brcs	.+20     	;  0x260
     24c:	42 0f       	add	r20, r18
     24e:	53 1f       	adc	r21, r19
     250:	50 93 ca 02 	sts	0x02CA, r21
     254:	40 93 c9 02 	sts	0x02C9, r20
     258:	f9 01       	movw	r30, r18
     25a:	61 93       	st	Z+, r22
     25c:	71 93       	st	Z+, r23
     25e:	02 c0       	rjmp	.+4      	;  0x264
     260:	e0 e0       	ldi	r30, 0x00	; 0
     262:	f0 e0       	ldi	r31, 0x00	; 0
     264:	cf 01       	movw	r24, r30
     266:	df 91       	pop	r29
     268:	cf 91       	pop	r28
     26a:	08 95       	ret
     26c:	cf 93       	push	r28
     26e:	df 93       	push	r29
     270:	00 97       	sbiw	r24, 0x00	; 0
     272:	09 f4       	brne	.+2      	;  0x276
     274:	50 c0       	rjmp	.+160    	;  0x316
     276:	ec 01       	movw	r28, r24
     278:	22 97       	sbiw	r28, 0x02	; 2
     27a:	1b 82       	std	Y+3, r1	; 0x03
     27c:	1a 82       	std	Y+2, r1	; 0x02
     27e:	a0 91 cb 02 	lds	r26, 0x02CB
     282:	b0 91 cc 02 	lds	r27, 0x02CC
     286:	10 97       	sbiw	r26, 0x00	; 0
     288:	09 f1       	breq	.+66     	;  0x2cc
     28a:	40 e0       	ldi	r20, 0x00	; 0
     28c:	50 e0       	ldi	r21, 0x00	; 0
     28e:	ac 17       	cp	r26, r28
     290:	bd 07       	cpc	r27, r29
     292:	08 f1       	brcs	.+66     	;  0x2d6
     294:	bb 83       	std	Y+3, r27	; 0x03
     296:	aa 83       	std	Y+2, r26	; 0x02
     298:	fe 01       	movw	r30, r28
     29a:	21 91       	ld	r18, Z+
     29c:	31 91       	ld	r19, Z+
     29e:	e2 0f       	add	r30, r18
     2a0:	f3 1f       	adc	r31, r19
     2a2:	ae 17       	cp	r26, r30
     2a4:	bf 07       	cpc	r27, r31
     2a6:	79 f4       	brne	.+30     	;  0x2c6
     2a8:	8d 91       	ld	r24, X+
     2aa:	9c 91       	ld	r25, X
     2ac:	11 97       	sbiw	r26, 0x01	; 1
     2ae:	28 0f       	add	r18, r24
     2b0:	39 1f       	adc	r19, r25
     2b2:	2e 5f       	subi	r18, 0xFE	; 254
     2b4:	3f 4f       	sbci	r19, 0xFF	; 255
     2b6:	39 83       	std	Y+1, r19	; 0x01
     2b8:	28 83       	st	Y, r18
     2ba:	12 96       	adiw	r26, 0x02	; 2
     2bc:	8d 91       	ld	r24, X+
     2be:	9c 91       	ld	r25, X
     2c0:	13 97       	sbiw	r26, 0x03	; 3
     2c2:	9b 83       	std	Y+3, r25	; 0x03
     2c4:	8a 83       	std	Y+2, r24	; 0x02
     2c6:	41 15       	cp	r20, r1
     2c8:	51 05       	cpc	r21, r1
     2ca:	71 f4       	brne	.+28     	;  0x2e8
     2cc:	d0 93 cc 02 	sts	0x02CC, r29
     2d0:	c0 93 cb 02 	sts	0x02CB, r28
     2d4:	20 c0       	rjmp	.+64     	;  0x316
     2d6:	12 96       	adiw	r26, 0x02	; 2
     2d8:	8d 91       	ld	r24, X+
     2da:	9c 91       	ld	r25, X
     2dc:	13 97       	sbiw	r26, 0x03	; 3
     2de:	ad 01       	movw	r20, r26
     2e0:	00 97       	sbiw	r24, 0x00	; 0
     2e2:	11 f0       	breq	.+4      	;  0x2e8
     2e4:	dc 01       	movw	r26, r24
     2e6:	d3 cf       	rjmp	.-90     	;  0x28e
     2e8:	fa 01       	movw	r30, r20
     2ea:	d3 83       	std	Z+3, r29	; 0x03
     2ec:	c2 83       	std	Z+2, r28	; 0x02
     2ee:	21 91       	ld	r18, Z+
     2f0:	31 91       	ld	r19, Z+
     2f2:	e2 0f       	add	r30, r18
     2f4:	f3 1f       	adc	r31, r19
     2f6:	ce 17       	cp	r28, r30
     2f8:	df 07       	cpc	r29, r31
     2fa:	69 f4       	brne	.+26     	;  0x316
     2fc:	88 81       	ld	r24, Y
     2fe:	99 81       	ldd	r25, Y+1	; 0x01
     300:	28 0f       	add	r18, r24
     302:	39 1f       	adc	r19, r25
     304:	2e 5f       	subi	r18, 0xFE	; 254
     306:	3f 4f       	sbci	r19, 0xFF	; 255
     308:	fa 01       	movw	r30, r20
     30a:	31 83       	std	Z+1, r19	; 0x01
     30c:	20 83       	st	Z, r18
     30e:	8a 81       	ldd	r24, Y+2	; 0x02
     310:	9b 81       	ldd	r25, Y+3	; 0x03
     312:	93 83       	std	Z+3, r25	; 0x03
     314:	82 83       	std	Z+2, r24	; 0x02
     316:	df 91       	pop	r29
     318:	cf 91       	pop	r28
     31a:	08 95       	ret
     31c:	a0 e0       	ldi	r26, 0x00	; 0
     31e:	b0 e0       	ldi	r27, 0x00	; 0
     320:	e4 e9       	ldi	r30, 0x94	; 148
     322:	f1 e0       	ldi	r31, 0x01	; 1
     324:	0c 94 9d 12 	jmp	0x253a	;  0x253a
     328:	6c 01       	movw	r12, r24
     32a:	00 97       	sbiw	r24, 0x00	; 0
     32c:	29 f4       	brne	.+10     	;  0x338
     32e:	cb 01       	movw	r24, r22
     330:	0e 94 8c 00 	call	0x118	;  0x118
     334:	6c 01       	movw	r12, r24
     336:	c1 c0       	rjmp	.+386    	;  0x4ba
     338:	8e ef       	ldi	r24, 0xFE	; 254
     33a:	88 2e       	mov	r8, r24
     33c:	8f ef       	ldi	r24, 0xFF	; 255
     33e:	98 2e       	mov	r9, r24
     340:	8c 0c       	add	r8, r12
     342:	9d 1c       	adc	r9, r13
     344:	86 01       	movw	r16, r12
     346:	06 0f       	add	r16, r22
     348:	17 1f       	adc	r17, r23
     34a:	08 15       	cp	r16, r8
     34c:	19 05       	cpc	r17, r9
     34e:	08 f4       	brcc	.+2      	;  0x352
     350:	b2 c0       	rjmp	.+356    	;  0x4b6
     352:	f4 01       	movw	r30, r8
     354:	a0 81       	ld	r26, Z
     356:	b1 81       	ldd	r27, Z+1	; 0x01
     358:	a6 17       	cp	r26, r22
     35a:	b7 07       	cpc	r27, r23
     35c:	b8 f0       	brcs	.+46     	;  0x38c
     35e:	a5 30       	cpi	r26, 0x05	; 5
     360:	b1 05       	cpc	r27, r1
     362:	08 f4       	brcc	.+2      	;  0x366
     364:	aa c0       	rjmp	.+340    	;  0x4ba
     366:	cd 01       	movw	r24, r26
     368:	04 97       	sbiw	r24, 0x04	; 4
     36a:	86 17       	cp	r24, r22
     36c:	97 07       	cpc	r25, r23
     36e:	08 f4       	brcc	.+2      	;  0x372
     370:	a4 c0       	rjmp	.+328    	;  0x4ba
     372:	12 97       	sbiw	r26, 0x02	; 2
     374:	a6 1b       	sub	r26, r22
     376:	b7 0b       	sbc	r27, r23
     378:	f8 01       	movw	r30, r16
     37a:	a1 93       	st	Z+, r26
     37c:	b1 93       	st	Z+, r27
     37e:	d4 01       	movw	r26, r8
     380:	6d 93       	st	X+, r22
     382:	7c 93       	st	X, r23
     384:	cf 01       	movw	r24, r30
     386:	0e 94 36 01 	call	0x26c	;  0x26c
     38a:	97 c0       	rjmp	.+302    	;  0x4ba
     38c:	7b 01       	movw	r14, r22
     38e:	ea 1a       	sub	r14, r26
     390:	fb 0a       	sbc	r15, r27
     392:	ee ef       	ldi	r30, 0xFE	; 254
     394:	ff ef       	ldi	r31, 0xFF	; 255
     396:	ee 0e       	add	r14, r30
     398:	ff 1e       	adc	r15, r31
     39a:	36 01       	movw	r6, r12
     39c:	6a 0e       	add	r6, r26
     39e:	7b 1e       	adc	r7, r27
     3a0:	c0 91 cb 02 	lds	r28, 0x02CB
     3a4:	d0 91 cc 02 	lds	r29, 0x02CC
     3a8:	44 24       	eor	r4, r4
     3aa:	55 24       	eor	r5, r5
     3ac:	aa 24       	eor	r10, r10
     3ae:	bb 24       	eor	r11, r11
     3b0:	4a c0       	rjmp	.+148    	;  0x446
     3b2:	c6 15       	cp	r28, r6
     3b4:	d7 05       	cpc	r29, r7
     3b6:	e1 f5       	brne	.+120    	;  0x430
     3b8:	48 81       	ld	r20, Y
     3ba:	59 81       	ldd	r21, Y+1	; 0x01
     3bc:	4e 15       	cp	r20, r14
     3be:	5f 05       	cpc	r21, r15
     3c0:	b8 f1       	brcs	.+110    	;  0x430
     3c2:	ca 01       	movw	r24, r20
     3c4:	04 97       	sbiw	r24, 0x04	; 4
     3c6:	8e 15       	cp	r24, r14
     3c8:	9f 05       	cpc	r25, r15
     3ca:	b0 f4       	brcc	.+44     	;  0x3f8
     3cc:	12 96       	adiw	r26, 0x02	; 2
     3ce:	a4 0f       	add	r26, r20
     3d0:	b5 1f       	adc	r27, r21
     3d2:	f4 01       	movw	r30, r8
     3d4:	b1 83       	std	Z+1, r27	; 0x01
     3d6:	a0 83       	st	Z, r26
     3d8:	2a 81       	ldd	r18, Y+2	; 0x02
     3da:	3b 81       	ldd	r19, Y+3	; 0x03
     3dc:	41 14       	cp	r4, r1
     3de:	51 04       	cpc	r5, r1
     3e0:	31 f0       	breq	.+12     	;  0x3ee
     3e2:	d2 01       	movw	r26, r4
     3e4:	13 96       	adiw	r26, 0x03	; 3
     3e6:	3c 93       	st	X, r19
     3e8:	2e 93       	st	-X, r18
     3ea:	12 97       	sbiw	r26, 0x02	; 2
     3ec:	66 c0       	rjmp	.+204    	;  0x4ba
     3ee:	30 93 cc 02 	sts	0x02CC, r19
     3f2:	20 93 cb 02 	sts	0x02CB, r18
     3f6:	61 c0       	rjmp	.+194    	;  0x4ba
     3f8:	8a 81       	ldd	r24, Y+2	; 0x02
     3fa:	9b 81       	ldd	r25, Y+3	; 0x03
     3fc:	f8 01       	movw	r30, r16
     3fe:	93 83       	std	Z+3, r25	; 0x03
     400:	82 83       	std	Z+2, r24	; 0x02
     402:	42 50       	subi	r20, 0x02	; 2
     404:	50 40       	sbci	r21, 0x00	; 0
     406:	4e 19       	sub	r20, r14
     408:	5f 09       	sbc	r21, r15
     40a:	51 83       	std	Z+1, r21	; 0x01
     40c:	40 83       	st	Z, r20
     40e:	41 14       	cp	r4, r1
     410:	51 04       	cpc	r5, r1
     412:	31 f0       	breq	.+12     	;  0x420
     414:	d2 01       	movw	r26, r4
     416:	13 96       	adiw	r26, 0x03	; 3
     418:	1c 93       	st	X, r17
     41a:	0e 93       	st	-X, r16
     41c:	12 97       	sbiw	r26, 0x02	; 2
     41e:	04 c0       	rjmp	.+8      	;  0x428
     420:	10 93 cc 02 	sts	0x02CC, r17
     424:	00 93 cb 02 	sts	0x02CB, r16
     428:	f4 01       	movw	r30, r8
     42a:	71 83       	std	Z+1, r23	; 0x01
     42c:	60 83       	st	Z, r22
     42e:	45 c0       	rjmp	.+138    	;  0x4ba
     430:	88 81       	ld	r24, Y
     432:	99 81       	ldd	r25, Y+1	; 0x01
     434:	a8 16       	cp	r10, r24
     436:	b9 06       	cpc	r11, r25
     438:	08 f4       	brcc	.+2      	;  0x43c
     43a:	5c 01       	movw	r10, r24
     43c:	2e 01       	movw	r4, r28
     43e:	8a 81       	ldd	r24, Y+2	; 0x02
     440:	9b 81       	ldd	r25, Y+3	; 0x03
     442:	9c 01       	movw	r18, r24
     444:	e9 01       	movw	r28, r18
     446:	20 97       	sbiw	r28, 0x00	; 0
     448:	09 f0       	breq	.+2      	;  0x44c
     44a:	b3 cf       	rjmp	.-154    	;  0x3b2
     44c:	80 91 c9 02 	lds	r24, 0x02C9
     450:	90 91 ca 02 	lds	r25, 0x02CA
     454:	86 15       	cp	r24, r6
     456:	97 05       	cpc	r25, r7
     458:	e9 f4       	brne	.+58     	;  0x494
     45a:	a6 16       	cp	r10, r22
     45c:	b7 06       	cpc	r11, r23
     45e:	d0 f4       	brcc	.+52     	;  0x494
     460:	20 91 bc 01 	lds	r18, 0x01BC
     464:	30 91 bd 01 	lds	r19, 0x01BD
     468:	21 15       	cp	r18, r1
     46a:	31 05       	cpc	r19, r1
     46c:	41 f4       	brne	.+16     	;  0x47e
     46e:	2d b7       	in	r18, 0x3d	; 61
     470:	3e b7       	in	r19, 0x3e	; 62
     472:	80 91 b8 01 	lds	r24, 0x01B8
     476:	90 91 b9 01 	lds	r25, 0x01B9
     47a:	28 1b       	sub	r18, r24
     47c:	39 0b       	sbc	r19, r25
     47e:	02 17       	cp	r16, r18
     480:	13 07       	cpc	r17, r19
     482:	c8 f4       	brcc	.+50     	;  0x4b6
     484:	10 93 ca 02 	sts	0x02CA, r17
     488:	00 93 c9 02 	sts	0x02C9, r16
     48c:	d4 01       	movw	r26, r8
     48e:	6d 93       	st	X+, r22
     490:	7c 93       	st	X, r23
     492:	13 c0       	rjmp	.+38     	;  0x4ba
     494:	cb 01       	movw	r24, r22
     496:	0e 94 8c 00 	call	0x118	;  0x118
     49a:	ec 01       	movw	r28, r24
     49c:	00 97       	sbiw	r24, 0x00	; 0
     49e:	59 f0       	breq	.+22     	;  0x4b6
     4a0:	f4 01       	movw	r30, r8
     4a2:	40 81       	ld	r20, Z
     4a4:	51 81       	ldd	r21, Z+1	; 0x01
     4a6:	b6 01       	movw	r22, r12
     4a8:	0e 94 63 02 	call	0x4c6	;  0x4c6
     4ac:	c6 01       	movw	r24, r12
     4ae:	0e 94 36 01 	call	0x26c	;  0x26c
     4b2:	6e 01       	movw	r12, r28
     4b4:	02 c0       	rjmp	.+4      	;  0x4ba
     4b6:	cc 24       	eor	r12, r12
     4b8:	dd 24       	eor	r13, r13
     4ba:	c6 01       	movw	r24, r12
     4bc:	cd b7       	in	r28, 0x3d	; 61
     4be:	de b7       	in	r29, 0x3e	; 62
     4c0:	e0 e1       	ldi	r30, 0x10	; 16
     4c2:	0c 94 b9 12 	jmp	0x2572	;  0x2572
     4c6:	fb 01       	movw	r30, r22
     4c8:	dc 01       	movw	r26, r24
     4ca:	02 c0       	rjmp	.+4      	;  0x4d0
     4cc:	01 90       	ld	r0, Z+
     4ce:	0d 92       	st	X+, r0
     4d0:	41 50       	subi	r20, 0x01	; 1
     4d2:	50 40       	sbci	r21, 0x00	; 0
     4d4:	d8 f7       	brcc	.-10     	;  0x4cc
     4d6:	08 95       	ret
     4d8:	fb 01       	movw	r30, r22
     4da:	dc 01       	movw	r26, r24
     4dc:	8d 91       	ld	r24, X+
     4de:	01 90       	ld	r0, Z+
     4e0:	80 19       	sub	r24, r0
     4e2:	01 10       	cpse	r0, r1
     4e4:	d9 f3       	breq	.-10     	;  0x4dc
     4e6:	99 0b       	sbc	r25, r25
     4e8:	08 95       	ret
     4ea:	fb 01       	movw	r30, r22
     4ec:	dc 01       	movw	r26, r24
     4ee:	01 90       	ld	r0, Z+
     4f0:	0d 92       	st	X+, r0
     4f2:	00 20       	and	r0, r0
     4f4:	e1 f7       	brne	.-8      	;  0x4ee
     4f6:	08 95       	ret
     4f8:	5f 92       	push	r5
     4fa:	6f 92       	push	r6
     4fc:	7f 92       	push	r7
     4fe:	8f 92       	push	r8
     500:	9f 92       	push	r9
     502:	af 92       	push	r10
     504:	bf 92       	push	r11
     506:	cf 92       	push	r12
     508:	df 92       	push	r13
     50a:	ef 92       	push	r14
     50c:	ff 92       	push	r15
     50e:	0f 93       	push	r16
     510:	1f 93       	push	r17
     512:	58 2e       	mov	r5, r24
     514:	79 01       	movw	r14, r18
     516:	8a 01       	movw	r16, r20
     518:	0e 94 42 0d 	call	0x1a84	;  0x1a84
     51c:	3b 01       	movw	r6, r22
     51e:	4c 01       	movw	r8, r24
     520:	80 91 de 01 	lds	r24, 0x01DE
     524:	90 91 df 01 	lds	r25, 0x01DF
     528:	a0 91 e0 01 	lds	r26, 0x01E0
     52c:	b0 91 e1 01 	lds	r27, 0x01E1
     530:	64 01       	movw	r12, r8
     532:	53 01       	movw	r10, r6
     534:	a8 1a       	sub	r10, r24
     536:	b9 0a       	sbc	r11, r25
     538:	ca 0a       	sbc	r12, r26
     53a:	db 0a       	sbc	r13, r27
     53c:	c8 01       	movw	r24, r16
     53e:	b7 01       	movw	r22, r14
     540:	24 e6       	ldi	r18, 0x64	; 100
     542:	30 e0       	ldi	r19, 0x00	; 0
     544:	40 e0       	ldi	r20, 0x00	; 0
     546:	50 e0       	ldi	r21, 0x00	; 0
     548:	0e 94 39 12 	call	0x2472	;  0x2472
     54c:	6a 15       	cp	r22, r10
     54e:	7b 05       	cpc	r23, r11
     550:	8c 05       	cpc	r24, r12
     552:	9d 05       	cpc	r25, r13
     554:	10 f0       	brcs	.+4      	;  0x55a
     556:	80 e0       	ldi	r24, 0x00	; 0
     558:	28 c0       	rjmp	.+80     	;  0x5aa
     55a:	85 2d       	mov	r24, r5
     55c:	61 e0       	ldi	r22, 0x01	; 1
     55e:	0e 94 3e 0e 	call	0x1c7c	;  0x1c7c
     562:	82 e0       	ldi	r24, 0x02	; 2
     564:	90 e0       	ldi	r25, 0x00	; 0
     566:	0e 94 68 0d 	call	0x1ad0	;  0x1ad0
     56a:	85 2d       	mov	r24, r5
     56c:	60 e0       	ldi	r22, 0x00	; 0
     56e:	0e 94 3e 0e 	call	0x1c7c	;  0x1c7c
     572:	80 91 0c 02 	lds	r24, 0x020C
     576:	90 91 0d 02 	lds	r25, 0x020D
     57a:	a0 91 0e 02 	lds	r26, 0x020E
     57e:	b0 91 0f 02 	lds	r27, 0x020F
     582:	01 96       	adiw	r24, 0x01	; 1
     584:	a1 1d       	adc	r26, r1
     586:	b1 1d       	adc	r27, r1
     588:	80 93 0c 02 	sts	0x020C, r24
     58c:	90 93 0d 02 	sts	0x020D, r25
     590:	a0 93 0e 02 	sts	0x020E, r26
     594:	b0 93 0f 02 	sts	0x020F, r27
     598:	60 92 de 01 	sts	0x01DE, r6
     59c:	70 92 df 01 	sts	0x01DF, r7
     5a0:	80 92 e0 01 	sts	0x01E0, r8
     5a4:	90 92 e1 01 	sts	0x01E1, r9
     5a8:	81 e0       	ldi	r24, 0x01	; 1
     5aa:	1f 91       	pop	r17
     5ac:	0f 91       	pop	r16
     5ae:	ff 90       	pop	r15
     5b0:	ef 90       	pop	r14
     5b2:	df 90       	pop	r13
     5b4:	cf 90       	pop	r12
     5b6:	bf 90       	pop	r11
     5b8:	af 90       	pop	r10
     5ba:	9f 90       	pop	r9
     5bc:	8f 90       	pop	r8
     5be:	7f 90       	pop	r7
     5c0:	6f 90       	pop	r6
     5c2:	5f 90       	pop	r5
     5c4:	08 95       	ret
     5c6:	cf 92       	push	r12
     5c8:	df 92       	push	r13
     5ca:	ef 92       	push	r14
     5cc:	ff 92       	push	r15
     5ce:	0f 93       	push	r16
     5d0:	1f 93       	push	r17
     5d2:	0e e9       	ldi	r16, 0x9E	; 158
     5d4:	12 e0       	ldi	r17, 0x02	; 2
     5d6:	c8 01       	movw	r24, r16
     5d8:	60 e0       	ldi	r22, 0x00	; 0
     5da:	71 e0       	ldi	r23, 0x01	; 1
     5dc:	0e 94 cf 0b 	call	0x179e	;  0x179e
     5e0:	95 e1       	ldi	r25, 0x15	; 21
     5e2:	e9 2e       	mov	r14, r25
     5e4:	92 e0       	ldi	r25, 0x02	; 2
     5e6:	f9 2e       	mov	r15, r25
     5e8:	c7 01       	movw	r24, r14
     5ea:	61 e0       	ldi	r22, 0x01	; 1
     5ec:	70 e0       	ldi	r23, 0x00	; 0
     5ee:	0e 94 65 08 	call	0x10ca	;  0x10ca
     5f2:	68 2f       	mov	r22, r24
     5f4:	70 e0       	ldi	r23, 0x00	; 0
     5f6:	68 53       	subi	r22, 0x38	; 56
     5f8:	7f 4f       	sbci	r23, 0xFF	; 255
     5fa:	c8 01       	movw	r24, r16
     5fc:	4a e0       	ldi	r20, 0x0A	; 10
     5fe:	50 e0       	ldi	r21, 0x00	; 0
     600:	0e 94 bc 0b 	call	0x1778	;  0x1778
     604:	82 e0       	ldi	r24, 0x02	; 2
     606:	c8 2e       	mov	r12, r24
     608:	81 e0       	ldi	r24, 0x01	; 1
     60a:	d8 2e       	mov	r13, r24
     60c:	c8 01       	movw	r24, r16
     60e:	b6 01       	movw	r22, r12
     610:	0e 94 cf 0b 	call	0x179e	;  0x179e
     614:	c7 01       	movw	r24, r14
     616:	62 e0       	ldi	r22, 0x02	; 2
     618:	70 e0       	ldi	r23, 0x00	; 0
     61a:	0e 94 65 08 	call	0x10ca	;  0x10ca
     61e:	68 2f       	mov	r22, r24
     620:	c8 01       	movw	r24, r16
     622:	4a e0       	ldi	r20, 0x0A	; 10
     624:	50 e0       	ldi	r21, 0x00	; 0
     626:	0e 94 6a 0b 	call	0x16d4	;  0x16d4
     62a:	c8 01       	movw	r24, r16
     62c:	b6 01       	movw	r22, r12
     62e:	0e 94 cf 0b 	call	0x179e	;  0x179e
     632:	c7 01       	movw	r24, r14
     634:	63 e0       	ldi	r22, 0x03	; 3
     636:	70 e0       	ldi	r23, 0x00	; 0
     638:	0e 94 65 08 	call	0x10ca	;  0x10ca
     63c:	68 2f       	mov	r22, r24
     63e:	c8 01       	movw	r24, r16
     640:	4a e0       	ldi	r20, 0x0A	; 10
     642:	50 e0       	ldi	r21, 0x00	; 0
     644:	0e 94 6a 0b 	call	0x16d4	;  0x16d4
     648:	c8 01       	movw	r24, r16
     64a:	64 e0       	ldi	r22, 0x04	; 4
     64c:	71 e0       	ldi	r23, 0x01	; 1
     64e:	0e 94 cf 0b 	call	0x179e	;  0x179e
     652:	1f 91       	pop	r17
     654:	0f 91       	pop	r16
     656:	ff 90       	pop	r15
     658:	ef 90       	pop	r14
     65a:	df 90       	pop	r13
     65c:	cf 90       	pop	r12
     65e:	08 95       	ret
     660:	6f 92       	push	r6
     662:	7f 92       	push	r7
     664:	8f 92       	push	r8
     666:	9f 92       	push	r9
     668:	af 92       	push	r10
     66a:	bf 92       	push	r11
     66c:	cf 92       	push	r12
     66e:	df 92       	push	r13
     670:	ef 92       	push	r14
     672:	ff 92       	push	r15
     674:	0f 93       	push	r16
     676:	1f 93       	push	r17
     678:	df 93       	push	r29
     67a:	cf 93       	push	r28
     67c:	cd b7       	in	r28, 0x3d	; 61
     67e:	de b7       	in	r29, 0x3e	; 62
     680:	c2 56       	subi	r28, 0x62	; 98
     682:	d0 40       	sbci	r29, 0x00	; 0
     684:	0f b6       	in	r0, 0x3f	; 63
     686:	f8 94       	cli
     688:	de bf       	out	0x3e, r29	; 62
     68a:	0f be       	out	0x3f, r0	; 63
     68c:	cd bf       	out	0x3d, r28	; 61
     68e:	0e 94 34 0d 	call	0x1a68	;  0x1a68
     692:	3b 01       	movw	r6, r22
     694:	4c 01       	movw	r8, r24
     696:	89 e0       	ldi	r24, 0x09	; 9
     698:	60 e0       	ldi	r22, 0x00	; 0
     69a:	0e 94 3e 0e 	call	0x1c7c	;  0x1c7c
     69e:	80 91 e6 01 	lds	r24, 0x01E6
     6a2:	90 91 e7 01 	lds	r25, 0x01E7
     6a6:	a0 91 e8 01 	lds	r26, 0x01E8
     6aa:	b0 91 e9 01 	lds	r27, 0x01E9
     6ae:	a4 01       	movw	r20, r8
     6b0:	93 01       	movw	r18, r6
     6b2:	28 1b       	sub	r18, r24
     6b4:	39 0b       	sbc	r19, r25
     6b6:	4a 0b       	sbc	r20, r26
     6b8:	5b 0b       	sbc	r21, r27
     6ba:	25 31       	cpi	r18, 0x15	; 21
     6bc:	31 05       	cpc	r19, r1
     6be:	41 05       	cpc	r20, r1
     6c0:	51 05       	cpc	r21, r1
     6c2:	08 f4       	brcc	.+2      	;  0x6c6
     6c4:	85 c2       	rjmp	.+1290   	;  0xbd0
     6c6:	60 92 e6 01 	sts	0x01E6, r6
     6ca:	70 92 e7 01 	sts	0x01E7, r7
     6ce:	80 92 e8 01 	sts	0x01E8, r8
     6d2:	90 92 e9 01 	sts	0x01E9, r9
     6d6:	8e 01       	movw	r16, r28
     6d8:	0f 5f       	subi	r16, 0xFF	; 255
     6da:	1f 4f       	sbci	r17, 0xFF	; 255
     6dc:	c8 01       	movw	r24, r16
     6de:	67 e0       	ldi	r22, 0x07	; 7
     6e0:	71 e0       	ldi	r23, 0x01	; 1
     6e2:	0e 94 fa 0f 	call	0x1ff4	;  0x1ff4
     6e6:	08 c0       	rjmp	.+16     	;  0x6f8
     6e8:	8e e9       	ldi	r24, 0x9E	; 158
     6ea:	92 e0       	ldi	r25, 0x02	; 2
     6ec:	0e 94 ba 09 	call	0x1374	;  0x1374
     6f0:	68 2f       	mov	r22, r24
     6f2:	c8 01       	movw	r24, r16
     6f4:	0e 94 b4 0f 	call	0x1f68	;  0x1f68
     6f8:	8e e9       	ldi	r24, 0x9E	; 158
     6fa:	92 e0       	ldi	r25, 0x02	; 2
     6fc:	0e 94 89 09 	call	0x1312	;  0x1312
     700:	89 2b       	or	r24, r25
     702:	91 f7       	brne	.-28     	;  0x6e8
     704:	c8 01       	movw	r24, r16
     706:	67 e0       	ldi	r22, 0x07	; 7
     708:	71 e0       	ldi	r23, 0x01	; 1
     70a:	0e 94 fb 0e 	call	0x1df6	;  0x1df6
     70e:	88 23       	and	r24, r24
     710:	29 f4       	brne	.+10     	;  0x71c
     712:	8e e9       	ldi	r24, 0x9E	; 158
     714:	92 e0       	ldi	r25, 0x02	; 2
     716:	b8 01       	movw	r22, r16
     718:	0e 94 b9 0c 	call	0x1972	;  0x1972
     71c:	8e 01       	movw	r16, r28
     71e:	08 5f       	subi	r16, 0xF8	; 248
     720:	1f 4f       	sbci	r17, 0xFF	; 255
     722:	c8 01       	movw	r24, r16
     724:	68 e0       	ldi	r22, 0x08	; 8
     726:	71 e0       	ldi	r23, 0x01	; 1
     728:	0e 94 fa 0f 	call	0x1ff4	;  0x1ff4
     72c:	7e 01       	movw	r14, r28
     72e:	08 94       	sec
     730:	e1 1c       	adc	r14, r1
     732:	f1 1c       	adc	r15, r1
     734:	c7 01       	movw	r24, r14
     736:	b8 01       	movw	r22, r16
     738:	0e 94 1e 0f 	call	0x1e3c	;  0x1e3c
     73c:	89 2b       	or	r24, r25
     73e:	11 f4       	brne	.+4      	;  0x744
     740:	11 e0       	ldi	r17, 0x01	; 1
     742:	14 c0       	rjmp	.+40     	;  0x76c
     744:	8e 01       	movw	r16, r28
     746:	01 5f       	subi	r16, 0xF1	; 241
     748:	1f 4f       	sbci	r17, 0xFF	; 255
     74a:	c8 01       	movw	r24, r16
     74c:	6e e0       	ldi	r22, 0x0E	; 14
     74e:	71 e0       	ldi	r23, 0x01	; 1
     750:	0e 94 fa 0f 	call	0x1ff4	;  0x1ff4
     754:	c7 01       	movw	r24, r14
     756:	b8 01       	movw	r22, r16
     758:	0e 94 1e 0f 	call	0x1e3c	;  0x1e3c
     75c:	10 e0       	ldi	r17, 0x00	; 0
     75e:	89 2b       	or	r24, r25
     760:	09 f4       	brne	.+2      	;  0x764
     762:	11 e0       	ldi	r17, 0x01	; 1
     764:	ce 01       	movw	r24, r28
     766:	0f 96       	adiw	r24, 0x0f	; 15
     768:	0e 94 14 10 	call	0x2028	;  0x2028
     76c:	ce 01       	movw	r24, r28
     76e:	08 96       	adiw	r24, 0x08	; 8
     770:	0e 94 14 10 	call	0x2028	;  0x2028
     774:	11 23       	and	r17, r17
     776:	09 f4       	brne	.+2      	;  0x77a
     778:	4d c0       	rjmp	.+154    	;  0x814
     77a:	8e e9       	ldi	r24, 0x9E	; 158
     77c:	92 e0       	ldi	r25, 0x02	; 2
     77e:	60 e1       	ldi	r22, 0x10	; 16
     780:	71 e0       	ldi	r23, 0x01	; 1
     782:	0e 94 cf 0b 	call	0x179e	;  0x179e
     786:	85 e1       	ldi	r24, 0x15	; 21
     788:	92 e0       	ldi	r25, 0x02	; 2
     78a:	61 e0       	ldi	r22, 0x01	; 1
     78c:	70 e0       	ldi	r23, 0x00	; 0
     78e:	0e 94 65 08 	call	0x10ca	;  0x10ca
     792:	90 e0       	ldi	r25, 0x00	; 0
     794:	88 53       	subi	r24, 0x38	; 56
     796:	9f 4f       	sbci	r25, 0xFF	; 255
     798:	90 93 c5 01 	sts	0x01C5, r25
     79c:	80 93 c4 01 	sts	0x01C4, r24
     7a0:	85 e1       	ldi	r24, 0x15	; 21
     7a2:	92 e0       	ldi	r25, 0x02	; 2
     7a4:	62 e0       	ldi	r22, 0x02	; 2
     7a6:	70 e0       	ldi	r23, 0x00	; 0
     7a8:	0e 94 65 08 	call	0x10ca	;  0x10ca
     7ac:	90 e0       	ldi	r25, 0x00	; 0
     7ae:	a0 e0       	ldi	r26, 0x00	; 0
     7b0:	b0 e0       	ldi	r27, 0x00	; 0
     7b2:	80 93 08 02 	sts	0x0208, r24
     7b6:	90 93 09 02 	sts	0x0209, r25
     7ba:	a0 93 0a 02 	sts	0x020A, r26
     7be:	b0 93 0b 02 	sts	0x020B, r27
     7c2:	85 e1       	ldi	r24, 0x15	; 21
     7c4:	92 e0       	ldi	r25, 0x02	; 2
     7c6:	63 e0       	ldi	r22, 0x03	; 3
     7c8:	70 e0       	ldi	r23, 0x00	; 0
     7ca:	0e 94 65 08 	call	0x10ca	;  0x10ca
     7ce:	90 e0       	ldi	r25, 0x00	; 0
     7d0:	90 93 bf 01 	sts	0x01BF, r25
     7d4:	80 93 be 01 	sts	0x01BE, r24
     7d8:	01 97       	sbiw	r24, 0x01	; 1
     7da:	21 f4       	brne	.+8      	;  0x7e4
     7dc:	84 e0       	ldi	r24, 0x04	; 4
     7de:	61 e0       	ldi	r22, 0x01	; 1
     7e0:	0e 94 3e 0e 	call	0x1c7c	;  0x1c7c
     7e4:	80 91 be 01 	lds	r24, 0x01BE
     7e8:	90 91 bf 01 	lds	r25, 0x01BF
     7ec:	89 2b       	or	r24, r25
     7ee:	21 f4       	brne	.+8      	;  0x7f8
     7f0:	84 e0       	ldi	r24, 0x04	; 4
     7f2:	60 e0       	ldi	r22, 0x00	; 0
     7f4:	0e 94 3e 0e 	call	0x1c7c	;  0x1c7c
     7f8:	0e 94 e3 02 	call	0x5c6	;  0x5c6
     7fc:	8e e9       	ldi	r24, 0x9E	; 158
     7fe:	92 e0       	ldi	r25, 0x02	; 2
     800:	64 e0       	ldi	r22, 0x04	; 4
     802:	71 e0       	ldi	r23, 0x01	; 1
     804:	0e 94 cf 0b 	call	0x179e	;  0x179e
     808:	80 91 06 02 	lds	r24, 0x0206
     80c:	91 e0       	ldi	r25, 0x01	; 1
     80e:	89 27       	eor	r24, r25
     810:	80 93 06 02 	sts	0x0206, r24
     814:	8e 01       	movw	r16, r28
     816:	0a 5e       	subi	r16, 0xEA	; 234
     818:	1f 4f       	sbci	r17, 0xFF	; 255
     81a:	c8 01       	movw	r24, r16
     81c:	6e e1       	ldi	r22, 0x1E	; 30
     81e:	71 e0       	ldi	r23, 0x01	; 1
     820:	0e 94 fa 0f 	call	0x1ff4	;  0x1ff4
     824:	7e 01       	movw	r14, r28
     826:	08 94       	sec
     828:	e1 1c       	adc	r14, r1
     82a:	f1 1c       	adc	r15, r1
     82c:	c7 01       	movw	r24, r14
     82e:	b8 01       	movw	r22, r16
     830:	0e 94 1e 0f 	call	0x1e3c	;  0x1e3c
     834:	89 2b       	or	r24, r25
     836:	11 f4       	brne	.+4      	;  0x83c
     838:	11 e0       	ldi	r17, 0x01	; 1
     83a:	28 c0       	rjmp	.+80     	;  0x88c
     83c:	8e 01       	movw	r16, r28
     83e:	03 5e       	subi	r16, 0xE3	; 227
     840:	1f 4f       	sbci	r17, 0xFF	; 255
     842:	c8 01       	movw	r24, r16
     844:	63 e2       	ldi	r22, 0x23	; 35
     846:	71 e0       	ldi	r23, 0x01	; 1
     848:	0e 94 fa 0f 	call	0x1ff4	;  0x1ff4
     84c:	c7 01       	movw	r24, r14
     84e:	b8 01       	movw	r22, r16
     850:	0e 94 1e 0f 	call	0x1e3c	;  0x1e3c
     854:	89 2b       	or	r24, r25
     856:	11 f4       	brne	.+4      	;  0x85c
     858:	11 e0       	ldi	r17, 0x01	; 1
     85a:	14 c0       	rjmp	.+40     	;  0x884
     85c:	8e 01       	movw	r16, r28
     85e:	0c 5d       	subi	r16, 0xDC	; 220
     860:	1f 4f       	sbci	r17, 0xFF	; 255
     862:	c8 01       	movw	r24, r16
     864:	65 e2       	ldi	r22, 0x25	; 37
     866:	71 e0       	ldi	r23, 0x01	; 1
     868:	0e 94 fa 0f 	call	0x1ff4	;  0x1ff4
     86c:	c7 01       	movw	r24, r14
     86e:	b8 01       	movw	r22, r16
     870:	0e 94 1e 0f 	call	0x1e3c	;  0x1e3c
     874:	10 e0       	ldi	r17, 0x00	; 0
     876:	89 2b       	or	r24, r25
     878:	09 f4       	brne	.+2      	;  0x87c
     87a:	11 e0       	ldi	r17, 0x01	; 1
     87c:	ce 01       	movw	r24, r28
     87e:	84 96       	adiw	r24, 0x24	; 36
     880:	0e 94 14 10 	call	0x2028	;  0x2028
     884:	ce 01       	movw	r24, r28
     886:	4d 96       	adiw	r24, 0x1d	; 29
     888:	0e 94 14 10 	call	0x2028	;  0x2028
     88c:	ce 01       	movw	r24, r28
     88e:	46 96       	adiw	r24, 0x16	; 22
     890:	0e 94 14 10 	call	0x2028	;  0x2028
     894:	11 23       	and	r17, r17
     896:	39 f1       	breq	.+78     	;  0x8e6
     898:	8e e9       	ldi	r24, 0x9E	; 158
     89a:	92 e0       	ldi	r25, 0x02	; 2
     89c:	67 e2       	ldi	r22, 0x27	; 39
     89e:	71 e0       	ldi	r23, 0x01	; 1
     8a0:	0e 94 cf 0b 	call	0x179e	;  0x179e
     8a4:	40 91 c4 01 	lds	r20, 0x01C4
     8a8:	48 5c       	subi	r20, 0xC8	; 200
     8aa:	85 e1       	ldi	r24, 0x15	; 21
     8ac:	92 e0       	ldi	r25, 0x02	; 2
     8ae:	61 e0       	ldi	r22, 0x01	; 1
     8b0:	70 e0       	ldi	r23, 0x00	; 0
     8b2:	0e 94 6c 08 	call	0x10d8	;  0x10d8
     8b6:	85 e1       	ldi	r24, 0x15	; 21
     8b8:	92 e0       	ldi	r25, 0x02	; 2
     8ba:	62 e0       	ldi	r22, 0x02	; 2
     8bc:	70 e0       	ldi	r23, 0x00	; 0
     8be:	40 91 08 02 	lds	r20, 0x0208
     8c2:	0e 94 6c 08 	call	0x10d8	;  0x10d8
     8c6:	85 e1       	ldi	r24, 0x15	; 21
     8c8:	92 e0       	ldi	r25, 0x02	; 2
     8ca:	63 e0       	ldi	r22, 0x03	; 3
     8cc:	70 e0       	ldi	r23, 0x00	; 0
     8ce:	40 91 be 01 	lds	r20, 0x01BE
     8d2:	0e 94 6c 08 	call	0x10d8	;  0x10d8
     8d6:	0e 94 e3 02 	call	0x5c6	;  0x5c6
     8da:	8e e9       	ldi	r24, 0x9E	; 158
     8dc:	92 e0       	ldi	r25, 0x02	; 2
     8de:	64 e0       	ldi	r22, 0x04	; 4
     8e0:	71 e0       	ldi	r23, 0x01	; 1
     8e2:	0e 94 cf 0b 	call	0x179e	;  0x179e
     8e6:	8e 01       	movw	r16, r28
     8e8:	05 5d       	subi	r16, 0xD5	; 213
     8ea:	1f 4f       	sbci	r17, 0xFF	; 255
     8ec:	c8 01       	movw	r24, r16
     8ee:	66 e3       	ldi	r22, 0x36	; 54
     8f0:	71 e0       	ldi	r23, 0x01	; 1
     8f2:	0e 94 fa 0f 	call	0x1ff4	;  0x1ff4
     8f6:	ce 01       	movw	r24, r28
     8f8:	01 96       	adiw	r24, 0x01	; 1
     8fa:	b8 01       	movw	r22, r16
     8fc:	0e 94 1e 0f 	call	0x1e3c	;  0x1e3c
     900:	7c 01       	movw	r14, r24
     902:	c8 01       	movw	r24, r16
     904:	0e 94 14 10 	call	0x2028	;  0x2028
     908:	ef 28       	or	r14, r15
     90a:	59 f5       	brne	.+86     	;  0x962
     90c:	80 91 c4 01 	lds	r24, 0x01C4
     910:	90 91 c5 01 	lds	r25, 0x01C5
     914:	20 91 c6 01 	lds	r18, 0x01C6
     918:	30 91 c7 01 	lds	r19, 0x01C7
     91c:	82 1b       	sub	r24, r18
     91e:	93 0b       	sbc	r25, r19
     920:	90 93 c5 01 	sts	0x01C5, r25
     924:	80 93 c4 01 	sts	0x01C4, r24
     928:	0b 97       	sbiw	r24, 0x0b	; 11
     92a:	30 f4       	brcc	.+12     	;  0x938
     92c:	8a e0       	ldi	r24, 0x0A	; 10
     92e:	90 e0       	ldi	r25, 0x00	; 0
     930:	90 93 c5 01 	sts	0x01C5, r25
     934:	80 93 c4 01 	sts	0x01C4, r24
     938:	8e e9       	ldi	r24, 0x9E	; 158
     93a:	92 e0       	ldi	r25, 0x02	; 2
     93c:	6c e0       	ldi	r22, 0x0C	; 12
     93e:	0e 94 c2 0a 	call	0x1584	;  0x1584
     942:	60 91 c4 01 	lds	r22, 0x01C4
     946:	70 91 c5 01 	lds	r23, 0x01C5
     94a:	8e e9       	ldi	r24, 0x9E	; 158
     94c:	92 e0       	ldi	r25, 0x02	; 2
     94e:	4a e0       	ldi	r20, 0x0A	; 10
     950:	50 e0       	ldi	r21, 0x00	; 0
     952:	0e 94 59 0b 	call	0x16b2	;  0x16b2
     956:	8e e9       	ldi	r24, 0x9E	; 158
     958:	92 e0       	ldi	r25, 0x02	; 2
     95a:	68 e3       	ldi	r22, 0x38	; 56
     95c:	71 e0       	ldi	r23, 0x01	; 1
     95e:	0e 94 cf 0b 	call	0x179e	;  0x179e
     962:	8e 01       	movw	r16, r28
     964:	0e 5c       	subi	r16, 0xCE	; 206
     966:	1f 4f       	sbci	r17, 0xFF	; 255
     968:	c8 01       	movw	r24, r16
     96a:	6a e3       	ldi	r22, 0x3A	; 58
     96c:	71 e0       	ldi	r23, 0x01	; 1
     96e:	0e 94 fa 0f 	call	0x1ff4	;  0x1ff4
     972:	ce 01       	movw	r24, r28
     974:	01 96       	adiw	r24, 0x01	; 1
     976:	b8 01       	movw	r22, r16
     978:	0e 94 1e 0f 	call	0x1e3c	;  0x1e3c
     97c:	7c 01       	movw	r14, r24
     97e:	c8 01       	movw	r24, r16
     980:	0e 94 14 10 	call	0x2028	;  0x2028
     984:	ef 28       	or	r14, r15
     986:	61 f5       	brne	.+88     	;  0x9e0
     988:	80 91 c6 01 	lds	r24, 0x01C6
     98c:	90 91 c7 01 	lds	r25, 0x01C7
     990:	20 91 c4 01 	lds	r18, 0x01C4
     994:	30 91 c5 01 	lds	r19, 0x01C5
     998:	82 0f       	add	r24, r18
     99a:	93 1f       	adc	r25, r19
     99c:	90 93 c5 01 	sts	0x01C5, r25
     9a0:	80 93 c4 01 	sts	0x01C4, r24
     9a4:	80 57       	subi	r24, 0x70	; 112
     9a6:	97 41       	sbci	r25, 0x17	; 23
     9a8:	30 f0       	brcs	.+12     	;  0x9b6
     9aa:	80 e7       	ldi	r24, 0x70	; 112
     9ac:	97 e1       	ldi	r25, 0x17	; 23
     9ae:	90 93 c5 01 	sts	0x01C5, r25
     9b2:	80 93 c4 01 	sts	0x01C4, r24
     9b6:	8e e9       	ldi	r24, 0x9E	; 158
     9b8:	92 e0       	ldi	r25, 0x02	; 2
     9ba:	6c e0       	ldi	r22, 0x0C	; 12
     9bc:	0e 94 c2 0a 	call	0x1584	;  0x1584
     9c0:	60 91 c4 01 	lds	r22, 0x01C4
     9c4:	70 91 c5 01 	lds	r23, 0x01C5
     9c8:	8e e9       	ldi	r24, 0x9E	; 158
     9ca:	92 e0       	ldi	r25, 0x02	; 2
     9cc:	4a e0       	ldi	r20, 0x0A	; 10
     9ce:	50 e0       	ldi	r21, 0x00	; 0
     9d0:	0e 94 59 0b 	call	0x16b2	;  0x16b2
     9d4:	8e e9       	ldi	r24, 0x9E	; 158
     9d6:	92 e0       	ldi	r25, 0x02	; 2
     9d8:	68 e3       	ldi	r22, 0x38	; 56
     9da:	71 e0       	ldi	r23, 0x01	; 1
     9dc:	0e 94 cf 0b 	call	0x179e	;  0x179e
     9e0:	8e 01       	movw	r16, r28
     9e2:	07 5c       	subi	r16, 0xC7	; 199
     9e4:	1f 4f       	sbci	r17, 0xFF	; 255
     9e6:	c8 01       	movw	r24, r16
     9e8:	6c e3       	ldi	r22, 0x3C	; 60
     9ea:	71 e0       	ldi	r23, 0x01	; 1
     9ec:	0e 94 fa 0f 	call	0x1ff4	;  0x1ff4
     9f0:	ce 01       	movw	r24, r28
     9f2:	01 96       	adiw	r24, 0x01	; 1
     9f4:	b8 01       	movw	r22, r16
     9f6:	0e 94 1e 0f 	call	0x1e3c	;  0x1e3c
     9fa:	7c 01       	movw	r14, r24
     9fc:	c8 01       	movw	r24, r16
     9fe:	0e 94 14 10 	call	0x2028	;  0x2028
     a02:	ef 28       	or	r14, r15
     a04:	71 f5       	brne	.+92     	;  0xa62
     a06:	8e e9       	ldi	r24, 0x9E	; 158
     a08:	92 e0       	ldi	r25, 0x02	; 2
     a0a:	6e e3       	ldi	r22, 0x3E	; 62
     a0c:	71 e0       	ldi	r23, 0x01	; 1
     a0e:	0e 94 cf 0b 	call	0x179e	;  0x179e
     a12:	90 e0       	ldi	r25, 0x00	; 0
     a14:	80 91 14 02 	lds	r24, 0x0214
     a18:	88 23       	and	r24, r24
     a1a:	09 f4       	brne	.+2      	;  0xa1e
     a1c:	91 e0       	ldi	r25, 0x01	; 1
     a1e:	90 93 14 02 	sts	0x0214, r25
     a22:	99 23       	and	r25, r25
     a24:	31 f4       	brne	.+12     	;  0xa32
     a26:	80 e2       	ldi	r24, 0x20	; 32
     a28:	93 e0       	ldi	r25, 0x03	; 3
     a2a:	90 93 c1 01 	sts	0x01C1, r25
     a2e:	80 93 c0 01 	sts	0x01C0, r24
     a32:	80 91 14 02 	lds	r24, 0x0214
     a36:	81 30       	cpi	r24, 0x01	; 1
     a38:	21 f4       	brne	.+8      	;  0xa42
     a3a:	10 92 c1 01 	sts	0x01C1, r1
     a3e:	10 92 c0 01 	sts	0x01C0, r1
     a42:	85 e0       	ldi	r24, 0x05	; 5
     a44:	0e 94 71 0e 	call	0x1ce2	;  0x1ce2
     a48:	60 e0       	ldi	r22, 0x00	; 0
     a4a:	89 2b       	or	r24, r25
     a4c:	09 f4       	brne	.+2      	;  0xa50
     a4e:	61 e0       	ldi	r22, 0x01	; 1
     a50:	85 e0       	ldi	r24, 0x05	; 5
     a52:	0e 94 3e 0e 	call	0x1c7c	;  0x1c7c
     a56:	8e e9       	ldi	r24, 0x9E	; 158
     a58:	92 e0       	ldi	r25, 0x02	; 2
     a5a:	68 e3       	ldi	r22, 0x38	; 56
     a5c:	71 e0       	ldi	r23, 0x01	; 1
     a5e:	0e 94 cf 0b 	call	0x179e	;  0x179e
     a62:	8e 01       	movw	r16, r28
     a64:	00 5c       	subi	r16, 0xC0	; 192
     a66:	1f 4f       	sbci	r17, 0xFF	; 255
     a68:	c8 01       	movw	r24, r16
     a6a:	63 e4       	ldi	r22, 0x43	; 67
     a6c:	71 e0       	ldi	r23, 0x01	; 1
     a6e:	0e 94 fa 0f 	call	0x1ff4	;  0x1ff4
     a72:	ce 01       	movw	r24, r28
     a74:	01 96       	adiw	r24, 0x01	; 1
     a76:	b8 01       	movw	r22, r16
     a78:	0e 94 1e 0f 	call	0x1e3c	;  0x1e3c
     a7c:	7c 01       	movw	r14, r24
     a7e:	c8 01       	movw	r24, r16
     a80:	0e 94 14 10 	call	0x2028	;  0x2028
     a84:	ef 28       	or	r14, r15
     a86:	81 f5       	brne	.+96     	;  0xae8
     a88:	80 91 be 01 	lds	r24, 0x01BE
     a8c:	90 91 bf 01 	lds	r25, 0x01BF
     a90:	81 30       	cpi	r24, 0x01	; 1
     a92:	91 05       	cpc	r25, r1
     a94:	39 f4       	brne	.+14     	;  0xaa4
     a96:	10 92 bf 01 	sts	0x01BF, r1
     a9a:	10 92 be 01 	sts	0x01BE, r1
     a9e:	84 e0       	ldi	r24, 0x04	; 4
     aa0:	60 e0       	ldi	r22, 0x00	; 0
     aa2:	0a c0       	rjmp	.+20     	;  0xab8
     aa4:	89 2b       	or	r24, r25
     aa6:	51 f4       	brne	.+20     	;  0xabc
     aa8:	81 e0       	ldi	r24, 0x01	; 1
     aaa:	90 e0       	ldi	r25, 0x00	; 0
     aac:	90 93 bf 01 	sts	0x01BF, r25
     ab0:	80 93 be 01 	sts	0x01BE, r24
     ab4:	84 e0       	ldi	r24, 0x04	; 4
     ab6:	61 e0       	ldi	r22, 0x01	; 1
     ab8:	0e 94 3e 0e 	call	0x1c7c	;  0x1c7c
     abc:	8e e9       	ldi	r24, 0x9E	; 158
     abe:	92 e0       	ldi	r25, 0x02	; 2
     ac0:	65 e4       	ldi	r22, 0x45	; 69
     ac2:	71 e0       	ldi	r23, 0x01	; 1
     ac4:	0e 94 cf 0b 	call	0x179e	;  0x179e
     ac8:	60 91 be 01 	lds	r22, 0x01BE
     acc:	70 91 bf 01 	lds	r23, 0x01BF
     ad0:	8e e9       	ldi	r24, 0x9E	; 158
     ad2:	92 e0       	ldi	r25, 0x02	; 2
     ad4:	4a e0       	ldi	r20, 0x0A	; 10
     ad6:	50 e0       	ldi	r21, 0x00	; 0
     ad8:	0e 94 bc 0b 	call	0x1778	;  0x1778
     adc:	8e e9       	ldi	r24, 0x9E	; 158
     ade:	92 e0       	ldi	r25, 0x02	; 2
     ae0:	68 e3       	ldi	r22, 0x38	; 56
     ae2:	71 e0       	ldi	r23, 0x01	; 1
     ae4:	0e 94 cf 0b 	call	0x179e	;  0x179e
     ae8:	8e 01       	movw	r16, r28
     aea:	09 5b       	subi	r16, 0xB9	; 185
     aec:	1f 4f       	sbci	r17, 0xFF	; 255
     aee:	c8 01       	movw	r24, r16
     af0:	60 e5       	ldi	r22, 0x50	; 80
     af2:	71 e0       	ldi	r23, 0x01	; 1
     af4:	0e 94 fa 0f 	call	0x1ff4	;  0x1ff4
     af8:	ce 01       	movw	r24, r28
     afa:	01 96       	adiw	r24, 0x01	; 1
     afc:	b8 01       	movw	r22, r16
     afe:	0e 94 1e 0f 	call	0x1e3c	;  0x1e3c
     b02:	7c 01       	movw	r14, r24
     b04:	c8 01       	movw	r24, r16
     b06:	0e 94 14 10 	call	0x2028	;  0x2028
     b0a:	ef 28       	or	r14, r15
     b0c:	11 f4       	brne	.+4      	;  0xb12
     b0e:	0e 94 e3 02 	call	0x5c6	;  0x5c6
     b12:	8e 01       	movw	r16, r28
     b14:	02 5b       	subi	r16, 0xB2	; 178
     b16:	1f 4f       	sbci	r17, 0xFF	; 255
     b18:	c8 01       	movw	r24, r16
     b1a:	62 e5       	ldi	r22, 0x52	; 82
     b1c:	71 e0       	ldi	r23, 0x01	; 1
     b1e:	0e 94 fa 0f 	call	0x1ff4	;  0x1ff4
     b22:	ce 01       	movw	r24, r28
     b24:	01 96       	adiw	r24, 0x01	; 1
     b26:	b8 01       	movw	r22, r16
     b28:	0e 94 1e 0f 	call	0x1e3c	;  0x1e3c
     b2c:	7c 01       	movw	r14, r24
     b2e:	c8 01       	movw	r24, r16
     b30:	0e 94 14 10 	call	0x2028	;  0x2028
     b34:	ef 28       	or	r14, r15
     b36:	19 f4       	brne	.+6      	;  0xb3e
     b38:	81 e0       	ldi	r24, 0x01	; 1
     b3a:	80 93 07 02 	sts	0x0207, r24
     b3e:	8e 01       	movw	r16, r28
     b40:	0b 5a       	subi	r16, 0xAB	; 171
     b42:	1f 4f       	sbci	r17, 0xFF	; 255
     b44:	c8 01       	movw	r24, r16
     b46:	64 e5       	ldi	r22, 0x54	; 84
     b48:	71 e0       	ldi	r23, 0x01	; 1
     b4a:	0e 94 fa 0f 	call	0x1ff4	;  0x1ff4
     b4e:	ce 01       	movw	r24, r28
     b50:	01 96       	adiw	r24, 0x01	; 1
     b52:	b8 01       	movw	r22, r16
     b54:	0e 94 1e 0f 	call	0x1e3c	;  0x1e3c
     b58:	7c 01       	movw	r14, r24
     b5a:	c8 01       	movw	r24, r16
     b5c:	0e 94 14 10 	call	0x2028	;  0x2028
     b60:	ef 28       	or	r14, r15
     b62:	31 f4       	brne	.+12     	;  0xb70
     b64:	80 91 06 02 	lds	r24, 0x0206
     b68:	91 e0       	ldi	r25, 0x01	; 1
     b6a:	89 27       	eor	r24, r25
     b6c:	80 93 06 02 	sts	0x0206, r24
     b70:	8e 01       	movw	r16, r28
     b72:	04 5a       	subi	r16, 0xA4	; 164
     b74:	1f 4f       	sbci	r17, 0xFF	; 255
     b76:	c8 01       	movw	r24, r16
     b78:	66 e5       	ldi	r22, 0x56	; 86
     b7a:	71 e0       	ldi	r23, 0x01	; 1
     b7c:	0e 94 fa 0f 	call	0x1ff4	;  0x1ff4
     b80:	ce 01       	movw	r24, r28
     b82:	01 96       	adiw	r24, 0x01	; 1
     b84:	b8 01       	movw	r22, r16
     b86:	0e 94 1e 0f 	call	0x1e3c	;  0x1e3c
     b8a:	7c 01       	movw	r14, r24
     b8c:	c8 01       	movw	r24, r16
     b8e:	0e 94 14 10 	call	0x2028	;  0x2028
     b92:	ef 28       	or	r14, r15
     b94:	c9 f4       	brne	.+50     	;  0xbc8
     b96:	80 91 c6 01 	lds	r24, 0x01C6
     b9a:	90 91 c7 01 	lds	r25, 0x01C7
     b9e:	01 97       	sbiw	r24, 0x01	; 1
     ba0:	19 f4       	brne	.+6      	;  0xba8
     ba2:	8a e0       	ldi	r24, 0x0A	; 10
     ba4:	90 e0       	ldi	r25, 0x00	; 0
     ba6:	02 c0       	rjmp	.+4      	;  0xbac
     ba8:	81 e0       	ldi	r24, 0x01	; 1
     baa:	90 e0       	ldi	r25, 0x00	; 0
     bac:	90 93 c7 01 	sts	0x01C7, r25
     bb0:	80 93 c6 01 	sts	0x01C6, r24
     bb4:	60 91 c6 01 	lds	r22, 0x01C6
     bb8:	70 91 c7 01 	lds	r23, 0x01C7
     bbc:	8e e9       	ldi	r24, 0x9E	; 158
     bbe:	92 e0       	ldi	r25, 0x02	; 2
     bc0:	4a e0       	ldi	r20, 0x0A	; 10
     bc2:	50 e0       	ldi	r21, 0x00	; 0
     bc4:	0e 94 59 0b 	call	0x16b2	;  0x16b2
     bc8:	ce 01       	movw	r24, r28
     bca:	01 96       	adiw	r24, 0x01	; 1
     bcc:	0e 94 14 10 	call	0x2028	;  0x2028
     bd0:	80 91 06 02 	lds	r24, 0x0206
     bd4:	88 23       	and	r24, r24
     bd6:	09 f4       	brne	.+2      	;  0xbda
     bd8:	85 c0       	rjmp	.+266    	;  0xce4
     bda:	80 91 e2 01 	lds	r24, 0x01E2
     bde:	90 91 e3 01 	lds	r25, 0x01E3
     be2:	a0 91 e4 01 	lds	r26, 0x01E4
     be6:	b0 91 e5 01 	lds	r27, 0x01E5
     bea:	a4 01       	movw	r20, r8
     bec:	93 01       	movw	r18, r6
     bee:	28 1b       	sub	r18, r24
     bf0:	39 0b       	sbc	r19, r25
     bf2:	4a 0b       	sbc	r20, r26
     bf4:	5b 0b       	sbc	r21, r27
     bf6:	da 01       	movw	r26, r20
     bf8:	c9 01       	movw	r24, r18
     bfa:	89 55       	subi	r24, 0x59	; 89
     bfc:	92 40       	sbci	r25, 0x02	; 2
     bfe:	a0 40       	sbci	r26, 0x00	; 0
     c00:	b0 40       	sbci	r27, 0x00	; 0
     c02:	08 f4       	brcc	.+2      	;  0xc06
     c04:	6f c0       	rjmp	.+222    	;  0xce4
     c06:	81 e0       	ldi	r24, 0x01	; 1
     c08:	0e 94 ad 0d 	call	0x1b5a	;  0x1b5a
     c0c:	8f e0       	ldi	r24, 0x0F	; 15
     c0e:	0e 94 b0 0d 	call	0x1b60	;  0x1b60
     c12:	9c 01       	movw	r18, r24
     c14:	90 93 c3 01 	sts	0x01C3, r25
     c18:	80 93 c2 01 	sts	0x01C2, r24
     c1c:	00 d0       	rcall	.+0      	;  0xc1e
     c1e:	00 d0       	rcall	.+0      	;  0xc20
     c20:	40 e0       	ldi	r20, 0x00	; 0
     c22:	50 e0       	ldi	r21, 0x00	; 0
     c24:	85 e0       	ldi	r24, 0x05	; 5
     c26:	90 e0       	ldi	r25, 0x00	; 0
     c28:	a0 e0       	ldi	r26, 0x00	; 0
     c2a:	b0 e0       	ldi	r27, 0x00	; 0
     c2c:	ed b7       	in	r30, 0x3d	; 61
     c2e:	fe b7       	in	r31, 0x3e	; 62
     c30:	81 83       	std	Z+1, r24	; 0x01
     c32:	92 83       	std	Z+2, r25	; 0x02
     c34:	a3 83       	std	Z+3, r26	; 0x03
     c36:	b4 83       	std	Z+4, r27	; 0x04
     c38:	ca 01       	movw	r24, r20
     c3a:	b9 01       	movw	r22, r18
     c3c:	20 e0       	ldi	r18, 0x00	; 0
     c3e:	30 e0       	ldi	r19, 0x00	; 0
     c40:	40 e0       	ldi	r20, 0x00	; 0
     c42:	50 e0       	ldi	r21, 0x00	; 0
     c44:	ff ef       	ldi	r31, 0xFF	; 255
     c46:	ef 2e       	mov	r14, r31
     c48:	f3 e0       	ldi	r31, 0x03	; 3
     c4a:	ff 2e       	mov	r15, r31
     c4c:	01 2d       	mov	r16, r1
     c4e:	11 2d       	mov	r17, r1
     c50:	e1 e0       	ldi	r30, 0x01	; 1
     c52:	ae 2e       	mov	r10, r30
     c54:	b1 2c       	mov	r11, r1
     c56:	c1 2c       	mov	r12, r1
     c58:	d1 2c       	mov	r13, r1
     c5a:	0e 94 a1 0e 	call	0x1d42	;  0x1d42
     c5e:	9b 01       	movw	r18, r22
     c60:	ac 01       	movw	r20, r24
     c62:	20 93 02 02 	sts	0x0202, r18
     c66:	30 93 03 02 	sts	0x0203, r19
     c6a:	40 93 04 02 	sts	0x0204, r20
     c6e:	50 93 05 02 	sts	0x0205, r21
     c72:	da 01       	movw	r26, r20
     c74:	c9 01       	movw	r24, r18
     c76:	62 e0       	ldi	r22, 0x02	; 2
     c78:	88 0f       	add	r24, r24
     c7a:	99 1f       	adc	r25, r25
     c7c:	aa 1f       	adc	r26, r26
     c7e:	bb 1f       	adc	r27, r27
     c80:	6a 95       	dec	r22
     c82:	d1 f7       	brne	.-12     	;  0xc78
     c84:	82 0f       	add	r24, r18
     c86:	93 1f       	adc	r25, r19
     c88:	a4 1f       	adc	r26, r20
     c8a:	b5 1f       	adc	r27, r21
     c8c:	90 93 c7 01 	sts	0x01C7, r25
     c90:	80 93 c6 01 	sts	0x01C6, r24
     c94:	0f 90       	pop	r0
     c96:	0f 90       	pop	r0
     c98:	0f 90       	pop	r0
     c9a:	0f 90       	pop	r0
     c9c:	8e e9       	ldi	r24, 0x9E	; 158
     c9e:	92 e0       	ldi	r25, 0x02	; 2
     ca0:	68 e5       	ldi	r22, 0x58	; 88
     ca2:	71 e0       	ldi	r23, 0x01	; 1
     ca4:	0e 94 cf 0b 	call	0x179e	;  0x179e
     ca8:	60 91 c6 01 	lds	r22, 0x01C6
     cac:	70 91 c7 01 	lds	r23, 0x01C7
     cb0:	8e e9       	ldi	r24, 0x9E	; 158
     cb2:	92 e0       	ldi	r25, 0x02	; 2
     cb4:	4a e0       	ldi	r20, 0x0A	; 10
     cb6:	50 e0       	ldi	r21, 0x00	; 0
     cb8:	0e 94 59 0b 	call	0x16b2	;  0x16b2
     cbc:	8e e9       	ldi	r24, 0x9E	; 158
     cbe:	92 e0       	ldi	r25, 0x02	; 2
     cc0:	69 e6       	ldi	r22, 0x69	; 105
     cc2:	71 e0       	ldi	r23, 0x01	; 1
     cc4:	0e 94 cf 0b 	call	0x179e	;  0x179e
     cc8:	8e e9       	ldi	r24, 0x9E	; 158
     cca:	92 e0       	ldi	r25, 0x02	; 2
     ccc:	6b e6       	ldi	r22, 0x6B	; 107
     cce:	71 e0       	ldi	r23, 0x01	; 1
     cd0:	0e 94 cf 0b 	call	0x179e	;  0x179e
     cd4:	60 92 e2 01 	sts	0x01E2, r6
     cd8:	70 92 e3 01 	sts	0x01E3, r7
     cdc:	80 92 e4 01 	sts	0x01E4, r8
     ce0:	90 92 e5 01 	sts	0x01E5, r9
     ce4:	60 91 c4 01 	lds	r22, 0x01C4
     ce8:	70 91 c5 01 	lds	r23, 0x01C5
     cec:	80 e0       	ldi	r24, 0x00	; 0
     cee:	90 e0       	ldi	r25, 0x00	; 0
     cf0:	0e 94 1c 11 	call	0x2238	;  0x2238
     cf4:	20 e0       	ldi	r18, 0x00	; 0
     cf6:	30 e0       	ldi	r19, 0x00	; 0
     cf8:	40 e7       	ldi	r20, 0x70	; 112
     cfa:	52 e4       	ldi	r21, 0x42	; 66
     cfc:	0e 94 83 10 	call	0x2106	;  0x2106
     d00:	2c e6       	ldi	r18, 0x6C	; 108
     d02:	36 ec       	ldi	r19, 0xC6	; 198
     d04:	42 e9       	ldi	r20, 0x92	; 146
     d06:	5e e3       	ldi	r21, 0x3E	; 62
     d08:	0e 94 83 10 	call	0x2106	;  0x2106
     d0c:	9b 01       	movw	r18, r22
     d0e:	ac 01       	movw	r20, r24
     d10:	60 e0       	ldi	r22, 0x00	; 0
     d12:	70 e4       	ldi	r23, 0x40	; 64
     d14:	8c e1       	ldi	r24, 0x1C	; 28
     d16:	96 e4       	ldi	r25, 0x46	; 70
     d18:	0e 94 83 10 	call	0x2106	;  0x2106
     d1c:	6b 01       	movw	r12, r22
     d1e:	7c 01       	movw	r14, r24
     d20:	0e 94 42 0d 	call	0x1a84	;  0x1a84
     d24:	20 91 ee 01 	lds	r18, 0x01EE
     d28:	30 91 ef 01 	lds	r19, 0x01EF
     d2c:	40 91 f0 01 	lds	r20, 0x01F0
     d30:	50 91 f1 01 	lds	r21, 0x01F1
     d34:	62 1b       	sub	r22, r18
     d36:	73 0b       	sbc	r23, r19
     d38:	84 0b       	sbc	r24, r20
     d3a:	95 0b       	sbc	r25, r21
     d3c:	60 93 f2 01 	sts	0x01F2, r22
     d40:	70 93 f3 01 	sts	0x01F3, r23
     d44:	80 93 f4 01 	sts	0x01F4, r24
     d48:	90 93 f5 01 	sts	0x01F5, r25
     d4c:	0e 94 42 0d 	call	0x1a84	;  0x1a84
     d50:	60 93 ea 01 	sts	0x01EA, r22
     d54:	70 93 eb 01 	sts	0x01EB, r23
     d58:	80 93 ec 01 	sts	0x01EC, r24
     d5c:	90 93 ed 01 	sts	0x01ED, r25
     d60:	c7 01       	movw	r24, r14
     d62:	b6 01       	movw	r22, r12
     d64:	0e 94 f0 10 	call	0x21e0	;  0x21e0
     d68:	9b 01       	movw	r18, r22
     d6a:	ac 01       	movw	r20, r24
     d6c:	00 91 be 01 	lds	r16, 0x01BE
     d70:	10 91 bf 01 	lds	r17, 0x01BF
     d74:	83 e0       	ldi	r24, 0x03	; 3
     d76:	90 e0       	ldi	r25, 0x00	; 0
     d78:	64 e0       	ldi	r22, 0x04	; 4
     d7a:	70 e0       	ldi	r23, 0x00	; 0
     d7c:	0e 94 7c 02 	call	0x4f8	;  0x4f8
     d80:	18 2f       	mov	r17, r24
     d82:	0e 94 42 0d 	call	0x1a84	;  0x1a84
     d86:	20 91 ea 01 	lds	r18, 0x01EA
     d8a:	30 91 eb 01 	lds	r19, 0x01EB
     d8e:	40 91 ec 01 	lds	r20, 0x01EC
     d92:	50 91 ed 01 	lds	r21, 0x01ED
     d96:	62 1b       	sub	r22, r18
     d98:	73 0b       	sbc	r23, r19
     d9a:	84 0b       	sbc	r24, r20
     d9c:	95 0b       	sbc	r25, r21
     d9e:	60 93 f6 01 	sts	0x01F6, r22
     da2:	70 93 f7 01 	sts	0x01F7, r23
     da6:	80 93 f8 01 	sts	0x01F8, r24
     daa:	90 93 f9 01 	sts	0x01F9, r25
     dae:	11 23       	and	r17, r17
     db0:	09 f4       	brne	.+2      	;  0xdb4
     db2:	63 c0       	rjmp	.+198    	;  0xe7a
     db4:	0e 94 42 0d 	call	0x1a84	;  0x1a84
     db8:	60 93 ee 01 	sts	0x01EE, r22
     dbc:	70 93 ef 01 	sts	0x01EF, r23
     dc0:	80 93 f0 01 	sts	0x01F0, r24
     dc4:	90 93 f1 01 	sts	0x01F1, r25
     dc8:	80 91 07 02 	lds	r24, 0x0207
     dcc:	88 23       	and	r24, r24
     dce:	09 f4       	brne	.+2      	;  0xdd2
     dd0:	54 c0       	rjmp	.+168    	;  0xe7a
     dd2:	8e e9       	ldi	r24, 0x9E	; 158
     dd4:	92 e0       	ldi	r25, 0x02	; 2
     dd6:	6e e6       	ldi	r22, 0x6E	; 110
     dd8:	71 e0       	ldi	r23, 0x01	; 1
     dda:	0e 94 cf 0b 	call	0x179e	;  0x179e
     dde:	8e e9       	ldi	r24, 0x9E	; 158
     de0:	92 e0       	ldi	r25, 0x02	; 2
     de2:	b7 01       	movw	r22, r14
     de4:	a6 01       	movw	r20, r12
     de6:	22 e0       	ldi	r18, 0x02	; 2
     de8:	30 e0       	ldi	r19, 0x00	; 0
     dea:	0e 94 b6 0c 	call	0x196c	;  0x196c
     dee:	8e e9       	ldi	r24, 0x9E	; 158
     df0:	92 e0       	ldi	r25, 0x02	; 2
     df2:	6b e7       	ldi	r22, 0x7B	; 123
     df4:	71 e0       	ldi	r23, 0x01	; 1
     df6:	0e 94 cf 0b 	call	0x179e	;  0x179e
     dfa:	60 91 c4 01 	lds	r22, 0x01C4
     dfe:	70 91 c5 01 	lds	r23, 0x01C5
     e02:	8e e9       	ldi	r24, 0x9E	; 158
     e04:	92 e0       	ldi	r25, 0x02	; 2
     e06:	4a e0       	ldi	r20, 0x0A	; 10
     e08:	50 e0       	ldi	r21, 0x00	; 0
     e0a:	0e 94 59 0b 	call	0x16b2	;  0x16b2
     e0e:	8e e9       	ldi	r24, 0x9E	; 158
     e10:	92 e0       	ldi	r25, 0x02	; 2
     e12:	62 e8       	ldi	r22, 0x82	; 130
     e14:	71 e0       	ldi	r23, 0x01	; 1
     e16:	0e 94 cf 0b 	call	0x179e	;  0x179e
     e1a:	40 91 f6 01 	lds	r20, 0x01F6
     e1e:	50 91 f7 01 	lds	r21, 0x01F7
     e22:	60 91 f8 01 	lds	r22, 0x01F8
     e26:	70 91 f9 01 	lds	r23, 0x01F9
     e2a:	8e e9       	ldi	r24, 0x9E	; 158
     e2c:	92 e0       	ldi	r25, 0x02	; 2
     e2e:	2a e0       	ldi	r18, 0x0A	; 10
     e30:	30 e0       	ldi	r19, 0x00	; 0
     e32:	0e 94 4a 0b 	call	0x1694	;  0x1694
     e36:	8e e9       	ldi	r24, 0x9E	; 158
     e38:	92 e0       	ldi	r25, 0x02	; 2
     e3a:	67 e8       	ldi	r22, 0x87	; 135
     e3c:	71 e0       	ldi	r23, 0x01	; 1
     e3e:	0e 94 cf 0b 	call	0x179e	;  0x179e
     e42:	40 91 f2 01 	lds	r20, 0x01F2
     e46:	50 91 f3 01 	lds	r21, 0x01F3
     e4a:	60 91 f4 01 	lds	r22, 0x01F4
     e4e:	70 91 f5 01 	lds	r23, 0x01F5
     e52:	8e e9       	ldi	r24, 0x9E	; 158
     e54:	92 e0       	ldi	r25, 0x02	; 2
     e56:	2a e0       	ldi	r18, 0x0A	; 10
     e58:	30 e0       	ldi	r19, 0x00	; 0
     e5a:	0e 94 4a 0b 	call	0x1694	;  0x1694
     e5e:	8e e9       	ldi	r24, 0x9E	; 158
     e60:	92 e0       	ldi	r25, 0x02	; 2
     e62:	6d e8       	ldi	r22, 0x8D	; 141
     e64:	71 e0       	ldi	r23, 0x01	; 1
     e66:	0e 94 cf 0b 	call	0x179e	;  0x179e
     e6a:	8e e9       	ldi	r24, 0x9E	; 158
     e6c:	92 e0       	ldi	r25, 0x02	; 2
     e6e:	68 e3       	ldi	r22, 0x38	; 56
     e70:	71 e0       	ldi	r23, 0x01	; 1
     e72:	0e 94 cf 0b 	call	0x179e	;  0x179e
     e76:	10 92 07 02 	sts	0x0207, r1
     e7a:	80 91 da 01 	lds	r24, 0x01DA
     e7e:	90 91 db 01 	lds	r25, 0x01DB
     e82:	a0 91 dc 01 	lds	r26, 0x01DC
     e86:	b0 91 dd 01 	lds	r27, 0x01DD
     e8a:	a4 01       	movw	r20, r8
     e8c:	93 01       	movw	r18, r6
     e8e:	28 1b       	sub	r18, r24
     e90:	39 0b       	sbc	r19, r25
     e92:	4a 0b       	sbc	r20, r26
     e94:	5b 0b       	sbc	r21, r27
     e96:	da 01       	movw	r26, r20
     e98:	c9 01       	movw	r24, r18
     e9a:	8a 5e       	subi	r24, 0xEA	; 234
     e9c:	93 40       	sbci	r25, 0x03	; 3
     e9e:	a0 40       	sbci	r26, 0x00	; 0
     ea0:	b0 40       	sbci	r27, 0x00	; 0
     ea2:	08 f4       	brcc	.+2      	;  0xea6
     ea4:	81 c0       	rjmp	.+258    	;  0xfa8
     ea6:	89 e0       	ldi	r24, 0x09	; 9
     ea8:	61 e0       	ldi	r22, 0x01	; 1
     eaa:	0e 94 3e 0e 	call	0x1c7c	;  0x1c7c
     eae:	8e e9       	ldi	r24, 0x9E	; 158
     eb0:	92 e0       	ldi	r25, 0x02	; 2
     eb2:	63 e9       	ldi	r22, 0x93	; 147
     eb4:	71 e0       	ldi	r23, 0x01	; 1
     eb6:	0e 94 cf 0b 	call	0x179e	;  0x179e
     eba:	8e e9       	ldi	r24, 0x9E	; 158
     ebc:	92 e0       	ldi	r25, 0x02	; 2
     ebe:	b7 01       	movw	r22, r14
     ec0:	a6 01       	movw	r20, r12
     ec2:	20 e0       	ldi	r18, 0x00	; 0
     ec4:	30 e0       	ldi	r19, 0x00	; 0
     ec6:	0e 94 b6 0c 	call	0x196c	;  0x196c
     eca:	8e e9       	ldi	r24, 0x9E	; 158
     ecc:	92 e0       	ldi	r25, 0x02	; 2
     ece:	67 e9       	ldi	r22, 0x97	; 151
     ed0:	71 e0       	ldi	r23, 0x01	; 1
     ed2:	0e 94 cf 0b 	call	0x179e	;  0x179e
     ed6:	80 91 0c 02 	lds	r24, 0x020C
     eda:	90 91 0d 02 	lds	r25, 0x020D
     ede:	a0 91 0e 02 	lds	r26, 0x020E
     ee2:	b0 91 0f 02 	lds	r27, 0x020F
     ee6:	20 91 10 02 	lds	r18, 0x0210
     eea:	30 91 11 02 	lds	r19, 0x0211
     eee:	7c 01       	movw	r14, r24
     ef0:	e2 1a       	sub	r14, r18
     ef2:	f3 0a       	sbc	r15, r19
     ef4:	80 93 10 02 	sts	0x0210, r24
     ef8:	90 93 11 02 	sts	0x0211, r25
     efc:	a0 93 12 02 	sts	0x0212, r26
     f00:	b0 93 13 02 	sts	0x0213, r27
     f04:	8e e9       	ldi	r24, 0x9E	; 158
     f06:	92 e0       	ldi	r25, 0x02	; 2
     f08:	6b e9       	ldi	r22, 0x9B	; 155
     f0a:	71 e0       	ldi	r23, 0x01	; 1
     f0c:	0e 94 cf 0b 	call	0x179e	;  0x179e
     f10:	8e e9       	ldi	r24, 0x9E	; 158
     f12:	92 e0       	ldi	r25, 0x02	; 2
     f14:	b7 01       	movw	r22, r14
     f16:	4a e0       	ldi	r20, 0x0A	; 10
     f18:	50 e0       	ldi	r21, 0x00	; 0
     f1a:	0e 94 59 0b 	call	0x16b2	;  0x16b2
     f1e:	8e e9       	ldi	r24, 0x9E	; 158
     f20:	92 e0       	ldi	r25, 0x02	; 2
     f22:	67 e0       	ldi	r22, 0x07	; 7
     f24:	71 e0       	ldi	r23, 0x01	; 1
     f26:	0e 94 cf 0b 	call	0x179e	;  0x179e
     f2a:	8e e9       	ldi	r24, 0x9E	; 158
     f2c:	92 e0       	ldi	r25, 0x02	; 2
     f2e:	6c e0       	ldi	r22, 0x0C	; 12
     f30:	0e 94 c2 0a 	call	0x1584	;  0x1584
     f34:	8e e9       	ldi	r24, 0x9E	; 158
     f36:	92 e0       	ldi	r25, 0x02	; 2
     f38:	6e e9       	ldi	r22, 0x9E	; 158
     f3a:	71 e0       	ldi	r23, 0x01	; 1
     f3c:	0e 94 cf 0b 	call	0x179e	;  0x179e
     f40:	00 e0       	ldi	r16, 0x00	; 0
     f42:	10 e0       	ldi	r17, 0x00	; 0
     f44:	c8 01       	movw	r24, r16
     f46:	b7 01       	movw	r22, r14
     f48:	0e 94 1c 11 	call	0x2238	;  0x2238
     f4c:	2c e6       	ldi	r18, 0x6C	; 108
     f4e:	36 ec       	ldi	r19, 0xC6	; 198
     f50:	42 e9       	ldi	r20, 0x92	; 146
     f52:	5e e3       	ldi	r21, 0x3E	; 62
     f54:	0e 94 d2 11 	call	0x23a4	;  0x23a4
     f58:	20 e0       	ldi	r18, 0x00	; 0
     f5a:	30 e0       	ldi	r19, 0x00	; 0
     f5c:	40 e7       	ldi	r20, 0x70	; 112
     f5e:	52 e4       	ldi	r21, 0x42	; 66
     f60:	0e 94 d2 11 	call	0x23a4	;  0x23a4
     f64:	20 e0       	ldi	r18, 0x00	; 0
     f66:	30 e0       	ldi	r19, 0x00	; 0
     f68:	40 e2       	ldi	r20, 0x20	; 32
     f6a:	51 e4       	ldi	r21, 0x41	; 65
     f6c:	0e 94 83 10 	call	0x2106	;  0x2106
     f70:	ab 01       	movw	r20, r22
     f72:	bc 01       	movw	r22, r24
     f74:	8e e9       	ldi	r24, 0x9E	; 158
     f76:	92 e0       	ldi	r25, 0x02	; 2
     f78:	21 e0       	ldi	r18, 0x01	; 1
     f7a:	30 e0       	ldi	r19, 0x00	; 0
     f7c:	0e 94 b6 0c 	call	0x196c	;  0x196c
     f80:	8e e9       	ldi	r24, 0x9E	; 158
     f82:	92 e0       	ldi	r25, 0x02	; 2
     f84:	63 ea       	ldi	r22, 0xA3	; 163
     f86:	71 e0       	ldi	r23, 0x01	; 1
     f88:	0e 94 cf 0b 	call	0x179e	;  0x179e
     f8c:	8e e9       	ldi	r24, 0x9E	; 158
     f8e:	92 e0       	ldi	r25, 0x02	; 2
     f90:	68 e3       	ldi	r22, 0x38	; 56
     f92:	71 e0       	ldi	r23, 0x01	; 1
     f94:	0e 94 cf 0b 	call	0x179e	;  0x179e
     f98:	60 92 da 01 	sts	0x01DA, r6
     f9c:	70 92 db 01 	sts	0x01DB, r7
     fa0:	80 92 dc 01 	sts	0x01DC, r8
     fa4:	90 92 dd 01 	sts	0x01DD, r9
     fa8:	ce 59       	subi	r28, 0x9E	; 158
     faa:	df 4f       	sbci	r29, 0xFF	; 255
     fac:	0f b6       	in	r0, 0x3f	; 63
     fae:	f8 94       	cli
     fb0:	de bf       	out	0x3e, r29	; 62
     fb2:	0f be       	out	0x3f, r0	; 63
     fb4:	cd bf       	out	0x3d, r28	; 61
     fb6:	cf 91       	pop	r28
     fb8:	df 91       	pop	r29
     fba:	1f 91       	pop	r17
     fbc:	0f 91       	pop	r16
     fbe:	ff 90       	pop	r15
     fc0:	ef 90       	pop	r14
     fc2:	df 90       	pop	r13
     fc4:	cf 90       	pop	r12
     fc6:	bf 90       	pop	r11
     fc8:	af 90       	pop	r10
     fca:	9f 90       	pop	r9
     fcc:	8f 90       	pop	r8
     fce:	7f 90       	pop	r7
     fd0:	6f 90       	pop	r6
     fd2:	08 95       	ret
     fd4:	83 e0       	ldi	r24, 0x03	; 3
     fd6:	61 e0       	ldi	r22, 0x01	; 1
     fd8:	0e 94 d2 0d 	call	0x1ba4	;  0x1ba4
     fdc:	84 e0       	ldi	r24, 0x04	; 4
     fde:	61 e0       	ldi	r22, 0x01	; 1
     fe0:	0e 94 d2 0d 	call	0x1ba4	;  0x1ba4
     fe4:	85 e0       	ldi	r24, 0x05	; 5
     fe6:	61 e0       	ldi	r22, 0x01	; 1
     fe8:	0e 94 d2 0d 	call	0x1ba4	;  0x1ba4
     fec:	89 e0       	ldi	r24, 0x09	; 9
     fee:	61 e0       	ldi	r22, 0x01	; 1
     ff0:	0e 94 d2 0d 	call	0x1ba4	;  0x1ba4
     ff4:	82 e0       	ldi	r24, 0x02	; 2
     ff6:	61 e0       	ldi	r22, 0x01	; 1
     ff8:	0e 94 d2 0d 	call	0x1ba4	;  0x1ba4
     ffc:	87 e0       	ldi	r24, 0x07	; 7
     ffe:	60 e0       	ldi	r22, 0x00	; 0
    1000:	0e 94 d2 0d 	call	0x1ba4	;  0x1ba4
    1004:	88 e0       	ldi	r24, 0x08	; 8
    1006:	60 e0       	ldi	r22, 0x00	; 0
    1008:	0e 94 d2 0d 	call	0x1ba4	;  0x1ba4
    100c:	85 e0       	ldi	r24, 0x05	; 5
    100e:	60 e0       	ldi	r22, 0x00	; 0
    1010:	0e 94 3e 0e 	call	0x1c7c	;  0x1c7c
    1014:	8e e9       	ldi	r24, 0x9E	; 158
    1016:	92 e0       	ldi	r25, 0x02	; 2
    1018:	40 e0       	ldi	r20, 0x00	; 0
    101a:	52 ec       	ldi	r21, 0xC2	; 194
    101c:	61 e0       	ldi	r22, 0x01	; 1
    101e:	70 e0       	ldi	r23, 0x00	; 0
    1020:	0e 94 02 09 	call	0x1204	;  0x1204
    1024:	0e 94 34 0d 	call	0x1a68	;  0x1a68
    1028:	60 93 fa 01 	sts	0x01FA, r22
    102c:	70 93 fb 01 	sts	0x01FB, r23
    1030:	80 93 fc 01 	sts	0x01FC, r24
    1034:	90 93 fd 01 	sts	0x01FD, r25
    1038:	10 92 fe 01 	sts	0x01FE, r1
    103c:	10 92 ff 01 	sts	0x01FF, r1
    1040:	10 92 00 02 	sts	0x0200, r1
    1044:	10 92 01 02 	sts	0x0201, r1
    1048:	85 e1       	ldi	r24, 0x15	; 21
    104a:	92 e0       	ldi	r25, 0x02	; 2
    104c:	61 e0       	ldi	r22, 0x01	; 1
    104e:	70 e0       	ldi	r23, 0x00	; 0
    1050:	0e 94 65 08 	call	0x10ca	;  0x10ca
    1054:	90 e0       	ldi	r25, 0x00	; 0
    1056:	88 53       	subi	r24, 0x38	; 56
    1058:	9f 4f       	sbci	r25, 0xFF	; 255
    105a:	90 93 c5 01 	sts	0x01C5, r25
    105e:	80 93 c4 01 	sts	0x01C4, r24
    1062:	85 e1       	ldi	r24, 0x15	; 21
    1064:	92 e0       	ldi	r25, 0x02	; 2
    1066:	62 e0       	ldi	r22, 0x02	; 2
    1068:	70 e0       	ldi	r23, 0x00	; 0
    106a:	0e 94 65 08 	call	0x10ca	;  0x10ca
    106e:	90 e0       	ldi	r25, 0x00	; 0
    1070:	a0 e0       	ldi	r26, 0x00	; 0
    1072:	b0 e0       	ldi	r27, 0x00	; 0
    1074:	80 93 08 02 	sts	0x0208, r24
    1078:	90 93 09 02 	sts	0x0209, r25
    107c:	a0 93 0a 02 	sts	0x020A, r26
    1080:	b0 93 0b 02 	sts	0x020B, r27
    1084:	85 e1       	ldi	r24, 0x15	; 21
    1086:	92 e0       	ldi	r25, 0x02	; 2
    1088:	63 e0       	ldi	r22, 0x03	; 3
    108a:	70 e0       	ldi	r23, 0x00	; 0
    108c:	0e 94 65 08 	call	0x10ca	;  0x10ca
    1090:	90 e0       	ldi	r25, 0x00	; 0
    1092:	90 93 bf 01 	sts	0x01BF, r25
    1096:	80 93 be 01 	sts	0x01BE, r24
    109a:	01 97       	sbiw	r24, 0x01	; 1
    109c:	21 f4       	brne	.+8      	;  0x10a6
    109e:	84 e0       	ldi	r24, 0x04	; 4
    10a0:	61 e0       	ldi	r22, 0x01	; 1
    10a2:	0e 94 3e 0e 	call	0x1c7c	;  0x1c7c
    10a6:	80 91 be 01 	lds	r24, 0x01BE
    10aa:	90 91 bf 01 	lds	r25, 0x01BF
    10ae:	89 2b       	or	r24, r25
    10b0:	21 f4       	brne	.+8      	;  0x10ba
    10b2:	84 e0       	ldi	r24, 0x04	; 4
    10b4:	60 e0       	ldi	r22, 0x00	; 0
    10b6:	0e 94 3e 0e 	call	0x1c7c	;  0x1c7c
    10ba:	84 e0       	ldi	r24, 0x04	; 4
    10bc:	60 91 be 01 	lds	r22, 0x01BE
    10c0:	0e 94 3e 0e 	call	0x1c7c	;  0x1c7c
    10c4:	0e 94 e3 02 	call	0x5c6	;  0x5c6
    10c8:	08 95       	ret
    10ca:	f9 99       	sbic	0x1f, 1	; 31
    10cc:	fe cf       	rjmp	.-4      	;  0x10ca
    10ce:	72 bd       	out	0x22, r23	; 34
    10d0:	61 bd       	out	0x21, r22	; 33
    10d2:	f8 9a       	sbi	0x1f, 0	; 31
    10d4:	80 b5       	in	r24, 0x20	; 32
    10d6:	08 95       	ret
    10d8:	f9 99       	sbic	0x1f, 1	; 31
    10da:	fe cf       	rjmp	.-4      	;  0x10d8
    10dc:	1f ba       	out	0x1f, r1	; 31
    10de:	72 bd       	out	0x22, r23	; 34
    10e0:	61 bd       	out	0x21, r22	; 33
    10e2:	40 bd       	out	0x20, r20	; 32
    10e4:	0f b6       	in	r0, 0x3f	; 63
    10e6:	f8 94       	cli
    10e8:	fa 9a       	sbi	0x1f, 2	; 31
    10ea:	f9 9a       	sbi	0x1f, 1	; 31
    10ec:	0f be       	out	0x3f, r0	; 63
    10ee:	08 95       	ret
    10f0:	08 95       	ret
    10f2:	1f 92       	push	r1
    10f4:	0f 92       	push	r0
    10f6:	0f b6       	in	r0, 0x3f	; 63
    10f8:	0f 92       	push	r0
    10fa:	11 24       	eor	r1, r1
    10fc:	2f 93       	push	r18
    10fe:	3f 93       	push	r19
    1100:	4f 93       	push	r20
    1102:	8f 93       	push	r24
    1104:	9f 93       	push	r25
    1106:	ef 93       	push	r30
    1108:	ff 93       	push	r31
    110a:	80 91 c0 00 	lds	r24, 0x00C0
    110e:	82 fd       	sbrc	r24, 2
    1110:	1d c0       	rjmp	.+58     	;  0x114c
    1112:	40 91 c6 00 	lds	r20, 0x00C6
    1116:	20 91 56 02 	lds	r18, 0x0256
    111a:	30 91 57 02 	lds	r19, 0x0257
    111e:	2f 5f       	subi	r18, 0xFF	; 255
    1120:	3f 4f       	sbci	r19, 0xFF	; 255
    1122:	2f 73       	andi	r18, 0x3F	; 63
    1124:	30 70       	andi	r19, 0x00	; 0
    1126:	80 91 58 02 	lds	r24, 0x0258
    112a:	90 91 59 02 	lds	r25, 0x0259
    112e:	28 17       	cp	r18, r24
    1130:	39 07       	cpc	r19, r25
    1132:	71 f0       	breq	.+28     	;  0x1150
    1134:	e0 91 56 02 	lds	r30, 0x0256
    1138:	f0 91 57 02 	lds	r31, 0x0257
    113c:	ea 5e       	subi	r30, 0xEA	; 234
    113e:	fd 4f       	sbci	r31, 0xFD	; 253
    1140:	40 83       	st	Z, r20
    1142:	30 93 57 02 	sts	0x0257, r19
    1146:	20 93 56 02 	sts	0x0256, r18
    114a:	02 c0       	rjmp	.+4      	;  0x1150
    114c:	80 91 c6 00 	lds	r24, 0x00C6
    1150:	ff 91       	pop	r31
    1152:	ef 91       	pop	r30
    1154:	9f 91       	pop	r25
    1156:	8f 91       	pop	r24
    1158:	4f 91       	pop	r20
    115a:	3f 91       	pop	r19
    115c:	2f 91       	pop	r18
    115e:	0f 90       	pop	r0
    1160:	0f be       	out	0x3f, r0	; 63
    1162:	0f 90       	pop	r0
    1164:	1f 90       	pop	r1
    1166:	18 95       	reti
    1168:	e0 91 aa 02 	lds	r30, 0x02AA
    116c:	f0 91 ab 02 	lds	r31, 0x02AB
    1170:	e0 5c       	subi	r30, 0xC0	; 192
    1172:	ff 4f       	sbci	r31, 0xFF	; 255
    1174:	81 91       	ld	r24, Z+
    1176:	91 91       	ld	r25, Z+
    1178:	20 81       	ld	r18, Z
    117a:	31 81       	ldd	r19, Z+1	; 0x01
    117c:	82 1b       	sub	r24, r18
    117e:	93 0b       	sbc	r25, r19
    1180:	8f 73       	andi	r24, 0x3F	; 63
    1182:	90 70       	andi	r25, 0x00	; 0
    1184:	89 2b       	or	r24, r25
    1186:	11 f0       	breq	.+4      	;  0x118c
    1188:	0e 94 78 08 	call	0x10f0	;  0x10f0
    118c:	08 95       	ret
    118e:	1f 92       	push	r1
    1190:	0f 92       	push	r0
    1192:	0f b6       	in	r0, 0x3f	; 63
    1194:	0f 92       	push	r0
    1196:	11 24       	eor	r1, r1
    1198:	2f 93       	push	r18
    119a:	3f 93       	push	r19
    119c:	8f 93       	push	r24
    119e:	9f 93       	push	r25
    11a0:	ef 93       	push	r30
    11a2:	ff 93       	push	r31
    11a4:	20 91 9a 02 	lds	r18, 0x029A
    11a8:	30 91 9b 02 	lds	r19, 0x029B
    11ac:	80 91 9c 02 	lds	r24, 0x029C
    11b0:	90 91 9d 02 	lds	r25, 0x029D
    11b4:	28 17       	cp	r18, r24
    11b6:	39 07       	cpc	r19, r25
    11b8:	31 f4       	brne	.+12     	;  0x11c6
    11ba:	80 91 c1 00 	lds	r24, 0x00C1
    11be:	8f 7d       	andi	r24, 0xDF	; 223
    11c0:	80 93 c1 00 	sts	0x00C1, r24
    11c4:	14 c0       	rjmp	.+40     	;  0x11ee
    11c6:	e0 91 9c 02 	lds	r30, 0x029C
    11ca:	f0 91 9d 02 	lds	r31, 0x029D
    11ce:	e6 5a       	subi	r30, 0xA6	; 166
    11d0:	fd 4f       	sbci	r31, 0xFD	; 253
    11d2:	20 81       	ld	r18, Z
    11d4:	80 91 9c 02 	lds	r24, 0x029C
    11d8:	90 91 9d 02 	lds	r25, 0x029D
    11dc:	01 96       	adiw	r24, 0x01	; 1
    11de:	8f 73       	andi	r24, 0x3F	; 63
    11e0:	90 70       	andi	r25, 0x00	; 0
    11e2:	90 93 9d 02 	sts	0x029D, r25
    11e6:	80 93 9c 02 	sts	0x029C, r24
    11ea:	20 93 c6 00 	sts	0x00C6, r18
    11ee:	ff 91       	pop	r31
    11f0:	ef 91       	pop	r30
    11f2:	9f 91       	pop	r25
    11f4:	8f 91       	pop	r24
    11f6:	3f 91       	pop	r19
    11f8:	2f 91       	pop	r18
    11fa:	0f 90       	pop	r0
    11fc:	0f be       	out	0x3f, r0	; 63
    11fe:	0f 90       	pop	r0
    1200:	1f 90       	pop	r1
    1202:	18 95       	reti
    1204:	af 92       	push	r10
    1206:	bf 92       	push	r11
    1208:	df 92       	push	r13
    120a:	ef 92       	push	r14
    120c:	ff 92       	push	r15
    120e:	0f 93       	push	r16
    1210:	1f 93       	push	r17
    1212:	cf 93       	push	r28
    1214:	df 93       	push	r29
    1216:	ec 01       	movw	r28, r24
    1218:	7a 01       	movw	r14, r20
    121a:	8b 01       	movw	r16, r22
    121c:	dd 24       	eor	r13, r13
    121e:	40 30       	cpi	r20, 0x00	; 0
    1220:	81 ee       	ldi	r24, 0xE1	; 225
    1222:	58 07       	cpc	r21, r24
    1224:	80 e0       	ldi	r24, 0x00	; 0
    1226:	68 07       	cpc	r22, r24
    1228:	80 e0       	ldi	r24, 0x00	; 0
    122a:	78 07       	cpc	r23, r24
    122c:	11 f0       	breq	.+4      	;  0x1232
    122e:	dd 24       	eor	r13, r13
    1230:	d3 94       	inc	r13
    1232:	91 e0       	ldi	r25, 0x01	; 1
    1234:	a9 2e       	mov	r10, r25
    1236:	b1 2c       	mov	r11, r1
    1238:	ec 89       	ldd	r30, Y+20	; 0x14
    123a:	fd 89       	ldd	r31, Y+21	; 0x15
    123c:	dd 20       	and	r13, r13
    123e:	69 f0       	breq	.+26     	;  0x125a
    1240:	c5 01       	movw	r24, r10
    1242:	08 a0       	ldd	r0, Y+32	; 0x20
    1244:	02 c0       	rjmp	.+4      	;  0x124a
    1246:	88 0f       	add	r24, r24
    1248:	99 1f       	adc	r25, r25
    124a:	0a 94       	dec	r0
    124c:	e2 f7       	brpl	.-8      	;  0x1246
    124e:	80 83       	st	Z, r24
    1250:	60 e0       	ldi	r22, 0x00	; 0
    1252:	79 e0       	ldi	r23, 0x09	; 9
    1254:	8d e3       	ldi	r24, 0x3D	; 61
    1256:	90 e0       	ldi	r25, 0x00	; 0
    1258:	05 c0       	rjmp	.+10     	;  0x1264
    125a:	10 82       	st	Z, r1
    125c:	60 e8       	ldi	r22, 0x80	; 128
    125e:	74 e8       	ldi	r23, 0x84	; 132
    1260:	8e e1       	ldi	r24, 0x1E	; 30
    1262:	90 e0       	ldi	r25, 0x00	; 0
    1264:	a8 01       	movw	r20, r16
    1266:	97 01       	movw	r18, r14
    1268:	0e 94 58 12 	call	0x24b0	;  0x24b0
    126c:	21 50       	subi	r18, 0x01	; 1
    126e:	30 40       	sbci	r19, 0x00	; 0
    1270:	40 40       	sbci	r20, 0x00	; 0
    1272:	50 40       	sbci	r21, 0x00	; 0
    1274:	56 95       	lsr	r21
    1276:	47 95       	ror	r20
    1278:	37 95       	ror	r19
    127a:	27 95       	ror	r18
    127c:	80 e1       	ldi	r24, 0x10	; 16
    127e:	20 30       	cpi	r18, 0x00	; 0
    1280:	38 07       	cpc	r19, r24
    1282:	20 f0       	brcs	.+8      	;  0x128c
    1284:	dd 20       	and	r13, r13
    1286:	11 f0       	breq	.+4      	;  0x128c
    1288:	dd 24       	eor	r13, r13
    128a:	d6 cf       	rjmp	.-84     	;  0x1238
    128c:	e8 89       	ldd	r30, Y+16	; 0x10
    128e:	f9 89       	ldd	r31, Y+17	; 0x11
    1290:	30 83       	st	Z, r19
    1292:	ea 89       	ldd	r30, Y+18	; 0x12
    1294:	fb 89       	ldd	r31, Y+19	; 0x13
    1296:	20 83       	st	Z, r18
    1298:	19 a2       	std	Y+33, r1	; 0x21
    129a:	ee 89       	ldd	r30, Y+22	; 0x16
    129c:	ff 89       	ldd	r31, Y+23	; 0x17
    129e:	40 81       	ld	r20, Z
    12a0:	21 e0       	ldi	r18, 0x01	; 1
    12a2:	30 e0       	ldi	r19, 0x00	; 0
    12a4:	c9 01       	movw	r24, r18
    12a6:	0c 8c       	ldd	r0, Y+28	; 0x1c
    12a8:	02 c0       	rjmp	.+4      	;  0x12ae
    12aa:	88 0f       	add	r24, r24
    12ac:	99 1f       	adc	r25, r25
    12ae:	0a 94       	dec	r0
    12b0:	e2 f7       	brpl	.-8      	;  0x12aa
    12b2:	48 2b       	or	r20, r24
    12b4:	40 83       	st	Z, r20
    12b6:	ee 89       	ldd	r30, Y+22	; 0x16
    12b8:	ff 89       	ldd	r31, Y+23	; 0x17
    12ba:	40 81       	ld	r20, Z
    12bc:	c9 01       	movw	r24, r18
    12be:	0d 8c       	ldd	r0, Y+29	; 0x1d
    12c0:	02 c0       	rjmp	.+4      	;  0x12c6
    12c2:	88 0f       	add	r24, r24
    12c4:	99 1f       	adc	r25, r25
    12c6:	0a 94       	dec	r0
    12c8:	e2 f7       	brpl	.-8      	;  0x12c2
    12ca:	48 2b       	or	r20, r24
    12cc:	40 83       	st	Z, r20
    12ce:	ee 89       	ldd	r30, Y+22	; 0x16
    12d0:	ff 89       	ldd	r31, Y+23	; 0x17
    12d2:	40 81       	ld	r20, Z
    12d4:	c9 01       	movw	r24, r18
    12d6:	0e 8c       	ldd	r0, Y+30	; 0x1e
    12d8:	02 c0       	rjmp	.+4      	;  0x12de
    12da:	88 0f       	add	r24, r24
    12dc:	99 1f       	adc	r25, r25
    12de:	0a 94       	dec	r0
    12e0:	e2 f7       	brpl	.-8      	;  0x12da
    12e2:	48 2b       	or	r20, r24
    12e4:	40 83       	st	Z, r20
    12e6:	ee 89       	ldd	r30, Y+22	; 0x16
    12e8:	ff 89       	ldd	r31, Y+23	; 0x17
    12ea:	80 81       	ld	r24, Z
    12ec:	0f 8c       	ldd	r0, Y+31	; 0x1f
    12ee:	02 c0       	rjmp	.+4      	;  0x12f4
    12f0:	22 0f       	add	r18, r18
    12f2:	33 1f       	adc	r19, r19
    12f4:	0a 94       	dec	r0
    12f6:	e2 f7       	brpl	.-8      	;  0x12f0
    12f8:	20 95       	com	r18
    12fa:	28 23       	and	r18, r24
    12fc:	20 83       	st	Z, r18
    12fe:	df 91       	pop	r29
    1300:	cf 91       	pop	r28
    1302:	1f 91       	pop	r17
    1304:	0f 91       	pop	r16
    1306:	ff 90       	pop	r15
    1308:	ef 90       	pop	r14
    130a:	df 90       	pop	r13
    130c:	bf 90       	pop	r11
    130e:	af 90       	pop	r10
    1310:	08 95       	ret
    1312:	dc 01       	movw	r26, r24
    1314:	1c 96       	adiw	r26, 0x0c	; 12
    1316:	ed 91       	ld	r30, X+
    1318:	fc 91       	ld	r31, X
    131a:	1d 97       	sbiw	r26, 0x0d	; 13
    131c:	e0 5c       	subi	r30, 0xC0	; 192
    131e:	ff 4f       	sbci	r31, 0xFF	; 255
    1320:	21 91       	ld	r18, Z+
    1322:	31 91       	ld	r19, Z+
    1324:	80 81       	ld	r24, Z
    1326:	91 81       	ldd	r25, Z+1	; 0x01
    1328:	28 1b       	sub	r18, r24
    132a:	39 0b       	sbc	r19, r25
    132c:	2f 73       	andi	r18, 0x3F	; 63
    132e:	30 70       	andi	r19, 0x00	; 0
    1330:	c9 01       	movw	r24, r18
    1332:	08 95       	ret
    1334:	dc 01       	movw	r26, r24
    1336:	1c 96       	adiw	r26, 0x0c	; 12
    1338:	ed 91       	ld	r30, X+
    133a:	fc 91       	ld	r31, X
    133c:	1d 97       	sbiw	r26, 0x0d	; 13
    133e:	e0 5c       	subi	r30, 0xC0	; 192
    1340:	ff 4f       	sbci	r31, 0xFF	; 255
    1342:	20 81       	ld	r18, Z
    1344:	31 81       	ldd	r19, Z+1	; 0x01
    1346:	e0 54       	subi	r30, 0x40	; 64
    1348:	f0 40       	sbci	r31, 0x00	; 0
    134a:	df 01       	movw	r26, r30
    134c:	ae 5b       	subi	r26, 0xBE	; 190
    134e:	bf 4f       	sbci	r27, 0xFF	; 255
    1350:	8d 91       	ld	r24, X+
    1352:	9c 91       	ld	r25, X
    1354:	11 97       	sbiw	r26, 0x01	; 1
    1356:	28 17       	cp	r18, r24
    1358:	39 07       	cpc	r19, r25
    135a:	19 f4       	brne	.+6      	;  0x1362
    135c:	2f ef       	ldi	r18, 0xFF	; 255
    135e:	3f ef       	ldi	r19, 0xFF	; 255
    1360:	07 c0       	rjmp	.+14     	;  0x1370
    1362:	8d 91       	ld	r24, X+
    1364:	9c 91       	ld	r25, X
    1366:	e8 0f       	add	r30, r24
    1368:	f9 1f       	adc	r31, r25
    136a:	80 81       	ld	r24, Z
    136c:	28 2f       	mov	r18, r24
    136e:	30 e0       	ldi	r19, 0x00	; 0
    1370:	c9 01       	movw	r24, r18
    1372:	08 95       	ret
    1374:	dc 01       	movw	r26, r24
    1376:	1c 96       	adiw	r26, 0x0c	; 12
    1378:	ed 91       	ld	r30, X+
    137a:	fc 91       	ld	r31, X
    137c:	1d 97       	sbiw	r26, 0x0d	; 13
    137e:	e0 5c       	subi	r30, 0xC0	; 192
    1380:	ff 4f       	sbci	r31, 0xFF	; 255
    1382:	20 81       	ld	r18, Z
    1384:	31 81       	ldd	r19, Z+1	; 0x01
    1386:	e0 54       	subi	r30, 0x40	; 64
    1388:	f0 40       	sbci	r31, 0x00	; 0
    138a:	df 01       	movw	r26, r30
    138c:	ae 5b       	subi	r26, 0xBE	; 190
    138e:	bf 4f       	sbci	r27, 0xFF	; 255
    1390:	8d 91       	ld	r24, X+
    1392:	9c 91       	ld	r25, X
    1394:	11 97       	sbiw	r26, 0x01	; 1
    1396:	28 17       	cp	r18, r24
    1398:	39 07       	cpc	r19, r25
    139a:	19 f4       	brne	.+6      	;  0x13a2
    139c:	2f ef       	ldi	r18, 0xFF	; 255
    139e:	3f ef       	ldi	r19, 0xFF	; 255
    13a0:	10 c0       	rjmp	.+32     	;  0x13c2
    13a2:	8d 91       	ld	r24, X+
    13a4:	9c 91       	ld	r25, X
    13a6:	11 97       	sbiw	r26, 0x01	; 1
    13a8:	e8 0f       	add	r30, r24
    13aa:	f9 1f       	adc	r31, r25
    13ac:	20 81       	ld	r18, Z
    13ae:	8d 91       	ld	r24, X+
    13b0:	9c 91       	ld	r25, X
    13b2:	11 97       	sbiw	r26, 0x01	; 1
    13b4:	01 96       	adiw	r24, 0x01	; 1
    13b6:	8f 73       	andi	r24, 0x3F	; 63
    13b8:	90 70       	andi	r25, 0x00	; 0
    13ba:	11 96       	adiw	r26, 0x01	; 1
    13bc:	9c 93       	st	X, r25
    13be:	8e 93       	st	-X, r24
    13c0:	30 e0       	ldi	r19, 0x00	; 0
    13c2:	c9 01       	movw	r24, r18
    13c4:	08 95       	ret
    13c6:	dc 01       	movw	r26, r24
    13c8:	91 96       	adiw	r26, 0x21	; 33
    13ca:	8c 91       	ld	r24, X
    13cc:	91 97       	sbiw	r26, 0x21	; 33
    13ce:	88 23       	and	r24, r24
    13d0:	39 f0       	breq	.+14     	;  0x13e0
    13d2:	54 96       	adiw	r26, 0x14	; 20
    13d4:	ed 91       	ld	r30, X+
    13d6:	fc 91       	ld	r31, X
    13d8:	55 97       	sbiw	r26, 0x15	; 21
    13da:	80 81       	ld	r24, Z
    13dc:	86 ff       	sbrs	r24, 6
    13de:	f9 cf       	rjmp	.-14     	;  0x13d2
    13e0:	91 96       	adiw	r26, 0x21	; 33
    13e2:	1c 92       	st	X, r1
    13e4:	08 95       	ret
    13e6:	cf 93       	push	r28
    13e8:	df 93       	push	r29
    13ea:	ec 01       	movw	r28, r24
    13ec:	ee 85       	ldd	r30, Y+14	; 0x0e
    13ee:	ff 85       	ldd	r31, Y+15	; 0x0f
    13f0:	e0 5c       	subi	r30, 0xC0	; 192
    13f2:	ff 4f       	sbci	r31, 0xFF	; 255
    13f4:	20 81       	ld	r18, Z
    13f6:	31 81       	ldd	r19, Z+1	; 0x01
    13f8:	e0 54       	subi	r30, 0x40	; 64
    13fa:	f0 40       	sbci	r31, 0x00	; 0
    13fc:	2f 5f       	subi	r18, 0xFF	; 255
    13fe:	3f 4f       	sbci	r19, 0xFF	; 255
    1400:	2f 73       	andi	r18, 0x3F	; 63
    1402:	30 70       	andi	r19, 0x00	; 0
    1404:	df 01       	movw	r26, r30
    1406:	ae 5b       	subi	r26, 0xBE	; 190
    1408:	bf 4f       	sbci	r27, 0xFF	; 255
    140a:	8d 91       	ld	r24, X+
    140c:	9c 91       	ld	r25, X
    140e:	11 97       	sbiw	r26, 0x01	; 1
    1410:	28 17       	cp	r18, r24
    1412:	39 07       	cpc	r19, r25
    1414:	d1 f3       	breq	.-12     	;  0x140a
    1416:	e0 5c       	subi	r30, 0xC0	; 192
    1418:	ff 4f       	sbci	r31, 0xFF	; 255
    141a:	80 81       	ld	r24, Z
    141c:	91 81       	ldd	r25, Z+1	; 0x01
    141e:	e0 54       	subi	r30, 0x40	; 64
    1420:	f0 40       	sbci	r31, 0x00	; 0
    1422:	e8 0f       	add	r30, r24
    1424:	f9 1f       	adc	r31, r25
    1426:	60 83       	st	Z, r22
    1428:	ee 85       	ldd	r30, Y+14	; 0x0e
    142a:	ff 85       	ldd	r31, Y+15	; 0x0f
    142c:	e0 5c       	subi	r30, 0xC0	; 192
    142e:	ff 4f       	sbci	r31, 0xFF	; 255
    1430:	31 83       	std	Z+1, r19	; 0x01
    1432:	20 83       	st	Z, r18
    1434:	ee 89       	ldd	r30, Y+22	; 0x16
    1436:	ff 89       	ldd	r31, Y+23	; 0x17
    1438:	20 81       	ld	r18, Z
    143a:	81 e0       	ldi	r24, 0x01	; 1
    143c:	90 e0       	ldi	r25, 0x00	; 0
    143e:	0f 8c       	ldd	r0, Y+31	; 0x1f
    1440:	02 c0       	rjmp	.+4      	;  0x1446
    1442:	88 0f       	add	r24, r24
    1444:	99 1f       	adc	r25, r25
    1446:	0a 94       	dec	r0
    1448:	e2 f7       	brpl	.-8      	;  0x1442
    144a:	28 2b       	or	r18, r24
    144c:	20 83       	st	Z, r18
    144e:	81 e0       	ldi	r24, 0x01	; 1
    1450:	89 a3       	std	Y+33, r24	; 0x21
    1452:	ec 89       	ldd	r30, Y+20	; 0x14
    1454:	fd 89       	ldd	r31, Y+21	; 0x15
    1456:	80 81       	ld	r24, Z
    1458:	80 64       	ori	r24, 0x40	; 64
    145a:	80 83       	st	Z, r24
    145c:	81 e0       	ldi	r24, 0x01	; 1
    145e:	90 e0       	ldi	r25, 0x00	; 0
    1460:	df 91       	pop	r29
    1462:	cf 91       	pop	r28
    1464:	08 95       	ret
    1466:	10 92 a1 02 	sts	0x02A1, r1
    146a:	10 92 a0 02 	sts	0x02A0, r1
    146e:	88 ee       	ldi	r24, 0xE8	; 232
    1470:	93 e0       	ldi	r25, 0x03	; 3
    1472:	a0 e0       	ldi	r26, 0x00	; 0
    1474:	b0 e0       	ldi	r27, 0x00	; 0
    1476:	80 93 a2 02 	sts	0x02A2, r24
    147a:	90 93 a3 02 	sts	0x02A3, r25
    147e:	a0 93 a4 02 	sts	0x02A4, r26
    1482:	b0 93 a5 02 	sts	0x02A5, r27
    1486:	8d ec       	ldi	r24, 0xCD	; 205
    1488:	91 e0       	ldi	r25, 0x01	; 1
    148a:	90 93 9f 02 	sts	0x029F, r25
    148e:	80 93 9e 02 	sts	0x029E, r24
    1492:	86 e1       	ldi	r24, 0x16	; 22
    1494:	92 e0       	ldi	r25, 0x02	; 2
    1496:	90 93 ab 02 	sts	0x02AB, r25
    149a:	80 93 aa 02 	sts	0x02AA, r24
    149e:	8a e5       	ldi	r24, 0x5A	; 90
    14a0:	92 e0       	ldi	r25, 0x02	; 2
    14a2:	90 93 ad 02 	sts	0x02AD, r25
    14a6:	80 93 ac 02 	sts	0x02AC, r24
    14aa:	85 ec       	ldi	r24, 0xC5	; 197
    14ac:	90 e0       	ldi	r25, 0x00	; 0
    14ae:	90 93 af 02 	sts	0x02AF, r25
    14b2:	80 93 ae 02 	sts	0x02AE, r24
    14b6:	84 ec       	ldi	r24, 0xC4	; 196
    14b8:	90 e0       	ldi	r25, 0x00	; 0
    14ba:	90 93 b1 02 	sts	0x02B1, r25
    14be:	80 93 b0 02 	sts	0x02B0, r24
    14c2:	80 ec       	ldi	r24, 0xC0	; 192
    14c4:	90 e0       	ldi	r25, 0x00	; 0
    14c6:	90 93 b3 02 	sts	0x02B3, r25
    14ca:	80 93 b2 02 	sts	0x02B2, r24
    14ce:	81 ec       	ldi	r24, 0xC1	; 193
    14d0:	90 e0       	ldi	r25, 0x00	; 0
    14d2:	90 93 b5 02 	sts	0x02B5, r25
    14d6:	80 93 b4 02 	sts	0x02B4, r24
    14da:	82 ec       	ldi	r24, 0xC2	; 194
    14dc:	90 e0       	ldi	r25, 0x00	; 0
    14de:	90 93 b7 02 	sts	0x02B7, r25
    14e2:	80 93 b6 02 	sts	0x02B6, r24
    14e6:	86 ec       	ldi	r24, 0xC6	; 198
    14e8:	90 e0       	ldi	r25, 0x00	; 0
    14ea:	90 93 b9 02 	sts	0x02B9, r25
    14ee:	80 93 b8 02 	sts	0x02B8, r24
    14f2:	84 e0       	ldi	r24, 0x04	; 4
    14f4:	80 93 ba 02 	sts	0x02BA, r24
    14f8:	83 e0       	ldi	r24, 0x03	; 3
    14fa:	80 93 bb 02 	sts	0x02BB, r24
    14fe:	87 e0       	ldi	r24, 0x07	; 7
    1500:	80 93 bc 02 	sts	0x02BC, r24
    1504:	85 e0       	ldi	r24, 0x05	; 5
    1506:	80 93 bd 02 	sts	0x02BD, r24
    150a:	81 e0       	ldi	r24, 0x01	; 1
    150c:	80 93 be 02 	sts	0x02BE, r24
    1510:	08 95       	ret
    1512:	cf 93       	push	r28
    1514:	df 93       	push	r29
    1516:	0e 94 72 0d 	call	0x1ae4	;  0x1ae4
    151a:	0e 94 ea 07 	call	0xfd4	;  0xfd4
    151e:	c4 eb       	ldi	r28, 0xB4	; 180
    1520:	d8 e0       	ldi	r29, 0x08	; 8
    1522:	0e 94 30 03 	call	0x660	;  0x660
    1526:	20 97       	sbiw	r28, 0x00	; 0
    1528:	e1 f3       	breq	.-8      	;  0x1522
    152a:	0e 94 b4 08 	call	0x1168	;  0x1168
    152e:	f9 cf       	rjmp	.-14     	;  0x1522
    1530:	cf 92       	push	r12
    1532:	df 92       	push	r13
    1534:	ef 92       	push	r14
    1536:	ff 92       	push	r15
    1538:	0f 93       	push	r16
    153a:	1f 93       	push	r17
    153c:	cf 93       	push	r28
    153e:	df 93       	push	r29
    1540:	7c 01       	movw	r14, r24
    1542:	6b 01       	movw	r12, r22
    1544:	8a 01       	movw	r16, r20
    1546:	c0 e0       	ldi	r28, 0x00	; 0
    1548:	d0 e0       	ldi	r29, 0x00	; 0
    154a:	0f c0       	rjmp	.+30     	;  0x156a
    154c:	d6 01       	movw	r26, r12
    154e:	6d 91       	ld	r22, X+
    1550:	6d 01       	movw	r12, r26
    1552:	d7 01       	movw	r26, r14
    1554:	ed 91       	ld	r30, X+
    1556:	fc 91       	ld	r31, X
    1558:	01 90       	ld	r0, Z+
    155a:	f0 81       	ld	r31, Z
    155c:	e0 2d       	mov	r30, r0
    155e:	c7 01       	movw	r24, r14
    1560:	09 95       	icall
    1562:	c8 0f       	add	r28, r24
    1564:	d9 1f       	adc	r29, r25
    1566:	01 50       	subi	r16, 0x01	; 1
    1568:	10 40       	sbci	r17, 0x00	; 0
    156a:	01 15       	cp	r16, r1
    156c:	11 05       	cpc	r17, r1
    156e:	71 f7       	brne	.-36     	;  0x154c
    1570:	ce 01       	movw	r24, r28
    1572:	df 91       	pop	r29
    1574:	cf 91       	pop	r28
    1576:	1f 91       	pop	r17
    1578:	0f 91       	pop	r16
    157a:	ff 90       	pop	r15
    157c:	ef 90       	pop	r14
    157e:	df 90       	pop	r13
    1580:	cf 90       	pop	r12
    1582:	08 95       	ret
    1584:	dc 01       	movw	r26, r24
    1586:	ed 91       	ld	r30, X+
    1588:	fc 91       	ld	r31, X
    158a:	01 90       	ld	r0, Z+
    158c:	f0 81       	ld	r31, Z
    158e:	e0 2d       	mov	r30, r0
    1590:	09 95       	icall
    1592:	08 95       	ret
    1594:	cf 93       	push	r28
    1596:	df 93       	push	r29
    1598:	ec 01       	movw	r28, r24
    159a:	61 15       	cp	r22, r1
    159c:	71 05       	cpc	r23, r1
    159e:	19 f4       	brne	.+6      	;  0x15a6
    15a0:	20 e0       	ldi	r18, 0x00	; 0
    15a2:	30 e0       	ldi	r19, 0x00	; 0
    15a4:	0f c0       	rjmp	.+30     	;  0x15c4
    15a6:	db 01       	movw	r26, r22
    15a8:	0d 90       	ld	r0, X+
    15aa:	00 20       	and	r0, r0
    15ac:	e9 f7       	brne	.-6      	;  0x15a8
    15ae:	11 97       	sbiw	r26, 0x01	; 1
    15b0:	a6 1b       	sub	r26, r22
    15b2:	b7 0b       	sbc	r27, r23
    15b4:	e8 81       	ld	r30, Y
    15b6:	f9 81       	ldd	r31, Y+1	; 0x01
    15b8:	02 80       	ldd	r0, Z+2	; 0x02
    15ba:	f3 81       	ldd	r31, Z+3	; 0x03
    15bc:	e0 2d       	mov	r30, r0
    15be:	ad 01       	movw	r20, r26
    15c0:	09 95       	icall
    15c2:	9c 01       	movw	r18, r24
    15c4:	c9 01       	movw	r24, r18
    15c6:	df 91       	pop	r29
    15c8:	cf 91       	pop	r28
    15ca:	08 95       	ret
    15cc:	4f 92       	push	r4
    15ce:	5f 92       	push	r5
    15d0:	7f 92       	push	r7
    15d2:	8f 92       	push	r8
    15d4:	9f 92       	push	r9
    15d6:	af 92       	push	r10
    15d8:	bf 92       	push	r11
    15da:	cf 92       	push	r12
    15dc:	df 92       	push	r13
    15de:	ef 92       	push	r14
    15e0:	ff 92       	push	r15
    15e2:	0f 93       	push	r16
    15e4:	1f 93       	push	r17
    15e6:	df 93       	push	r29
    15e8:	cf 93       	push	r28
    15ea:	cd b7       	in	r28, 0x3d	; 61
    15ec:	de b7       	in	r29, 0x3e	; 62
    15ee:	a1 97       	sbiw	r28, 0x21	; 33
    15f0:	0f b6       	in	r0, 0x3f	; 63
    15f2:	f8 94       	cli
    15f4:	de bf       	out	0x3e, r29	; 62
    15f6:	0f be       	out	0x3f, r0	; 63
    15f8:	cd bf       	out	0x3d, r28	; 61
    15fa:	2c 01       	movw	r4, r24
    15fc:	74 2e       	mov	r7, r20
    15fe:	cb 01       	movw	r24, r22
    1600:	22 30       	cpi	r18, 0x02	; 2
    1602:	08 f4       	brcc	.+2      	;  0x1606
    1604:	2a e0       	ldi	r18, 0x0A	; 10
    1606:	19 a2       	std	Y+33, r1	; 0x21
    1608:	31 e2       	ldi	r19, 0x21	; 33
    160a:	c3 2e       	mov	r12, r19
    160c:	d1 2c       	mov	r13, r1
    160e:	cc 0e       	add	r12, r28
    1610:	dd 1e       	adc	r13, r29
    1612:	82 2e       	mov	r8, r18
    1614:	99 24       	eor	r9, r9
    1616:	aa 24       	eor	r10, r10
    1618:	bb 24       	eor	r11, r11
    161a:	67 2d       	mov	r22, r7
    161c:	75 2f       	mov	r23, r21
    161e:	a5 01       	movw	r20, r10
    1620:	94 01       	movw	r18, r8
    1622:	0e 94 58 12 	call	0x24b0	;  0x24b0
    1626:	79 01       	movw	r14, r18
    1628:	8a 01       	movw	r16, r20
    162a:	c8 01       	movw	r24, r16
    162c:	b7 01       	movw	r22, r14
    162e:	a5 01       	movw	r20, r10
    1630:	94 01       	movw	r18, r8
    1632:	0e 94 39 12 	call	0x2472	;  0x2472
    1636:	47 2d       	mov	r20, r7
    1638:	46 1b       	sub	r20, r22
    163a:	08 94       	sec
    163c:	c1 08       	sbc	r12, r1
    163e:	d1 08       	sbc	r13, r1
    1640:	4a 30       	cpi	r20, 0x0A	; 10
    1642:	14 f4       	brge	.+4      	;  0x1648
    1644:	40 5d       	subi	r20, 0xD0	; 208
    1646:	01 c0       	rjmp	.+2      	;  0x164a
    1648:	49 5c       	subi	r20, 0xC9	; 201
    164a:	f6 01       	movw	r30, r12
    164c:	40 83       	st	Z, r20
    164e:	e1 14       	cp	r14, r1
    1650:	f1 04       	cpc	r15, r1
    1652:	01 05       	cpc	r16, r1
    1654:	11 05       	cpc	r17, r1
    1656:	21 f0       	breq	.+8      	;  0x1660
    1658:	7e 2c       	mov	r7, r14
    165a:	5f 2d       	mov	r21, r15
    165c:	c8 01       	movw	r24, r16
    165e:	dd cf       	rjmp	.-70     	;  0x161a
    1660:	c2 01       	movw	r24, r4
    1662:	b6 01       	movw	r22, r12
    1664:	0e 94 ca 0a 	call	0x1594	;  0x1594
    1668:	a1 96       	adiw	r28, 0x21	; 33
    166a:	0f b6       	in	r0, 0x3f	; 63
    166c:	f8 94       	cli
    166e:	de bf       	out	0x3e, r29	; 62
    1670:	0f be       	out	0x3f, r0	; 63
    1672:	cd bf       	out	0x3d, r28	; 61
    1674:	cf 91       	pop	r28
    1676:	df 91       	pop	r29
    1678:	1f 91       	pop	r17
    167a:	0f 91       	pop	r16
    167c:	ff 90       	pop	r15
    167e:	ef 90       	pop	r14
    1680:	df 90       	pop	r13
    1682:	cf 90       	pop	r12
    1684:	bf 90       	pop	r11
    1686:	af 90       	pop	r10
    1688:	9f 90       	pop	r9
    168a:	8f 90       	pop	r8
    168c:	7f 90       	pop	r7
    168e:	5f 90       	pop	r5
    1690:	4f 90       	pop	r4
    1692:	08 95       	ret
    1694:	dc 01       	movw	r26, r24
    1696:	21 15       	cp	r18, r1
    1698:	31 05       	cpc	r19, r1
    169a:	41 f4       	brne	.+16     	;  0x16ac
    169c:	ed 91       	ld	r30, X+
    169e:	fc 91       	ld	r31, X
    16a0:	01 90       	ld	r0, Z+
    16a2:	f0 81       	ld	r31, Z
    16a4:	e0 2d       	mov	r30, r0
    16a6:	64 2f       	mov	r22, r20
    16a8:	09 95       	icall
    16aa:	08 95       	ret
    16ac:	0e 94 e6 0a 	call	0x15cc	;  0x15cc
    16b0:	08 95       	ret
    16b2:	ef 92       	push	r14
    16b4:	ff 92       	push	r15
    16b6:	0f 93       	push	r16
    16b8:	1f 93       	push	r17
    16ba:	9a 01       	movw	r18, r20
    16bc:	7b 01       	movw	r14, r22
    16be:	00 e0       	ldi	r16, 0x00	; 0
    16c0:	10 e0       	ldi	r17, 0x00	; 0
    16c2:	b8 01       	movw	r22, r16
    16c4:	a7 01       	movw	r20, r14
    16c6:	0e 94 4a 0b 	call	0x1694	;  0x1694
    16ca:	1f 91       	pop	r17
    16cc:	0f 91       	pop	r16
    16ce:	ff 90       	pop	r15
    16d0:	ef 90       	pop	r14
    16d2:	08 95       	ret
    16d4:	ef 92       	push	r14
    16d6:	ff 92       	push	r15
    16d8:	0f 93       	push	r16
    16da:	1f 93       	push	r17
    16dc:	9a 01       	movw	r18, r20
    16de:	e6 2e       	mov	r14, r22
    16e0:	ff 24       	eor	r15, r15
    16e2:	00 e0       	ldi	r16, 0x00	; 0
    16e4:	10 e0       	ldi	r17, 0x00	; 0
    16e6:	b8 01       	movw	r22, r16
    16e8:	a7 01       	movw	r20, r14
    16ea:	0e 94 4a 0b 	call	0x1694	;  0x1694
    16ee:	1f 91       	pop	r17
    16f0:	0f 91       	pop	r16
    16f2:	ff 90       	pop	r15
    16f4:	ef 90       	pop	r14
    16f6:	08 95       	ret
    16f8:	cf 92       	push	r12
    16fa:	df 92       	push	r13
    16fc:	ef 92       	push	r14
    16fe:	ff 92       	push	r15
    1700:	0f 93       	push	r16
    1702:	1f 93       	push	r17
    1704:	cf 93       	push	r28
    1706:	df 93       	push	r29
    1708:	ec 01       	movw	r28, r24
    170a:	6a 01       	movw	r12, r20
    170c:	7b 01       	movw	r14, r22
    170e:	21 15       	cp	r18, r1
    1710:	31 05       	cpc	r19, r1
    1712:	41 f4       	brne	.+16     	;  0x1724
    1714:	e8 81       	ld	r30, Y
    1716:	f9 81       	ldd	r31, Y+1	; 0x01
    1718:	01 90       	ld	r0, Z+
    171a:	f0 81       	ld	r31, Z
    171c:	e0 2d       	mov	r30, r0
    171e:	64 2f       	mov	r22, r20
    1720:	09 95       	icall
    1722:	1f c0       	rjmp	.+62     	;  0x1762
    1724:	2a 30       	cpi	r18, 0x0A	; 10
    1726:	31 05       	cpc	r19, r1
    1728:	d1 f4       	brne	.+52     	;  0x175e
    172a:	77 ff       	sbrs	r23, 7
    172c:	17 c0       	rjmp	.+46     	;  0x175c
    172e:	e8 81       	ld	r30, Y
    1730:	f9 81       	ldd	r31, Y+1	; 0x01
    1732:	01 90       	ld	r0, Z+
    1734:	f0 81       	ld	r31, Z
    1736:	e0 2d       	mov	r30, r0
    1738:	6d e2       	ldi	r22, 0x2D	; 45
    173a:	09 95       	icall
    173c:	8c 01       	movw	r16, r24
    173e:	44 27       	eor	r20, r20
    1740:	55 27       	eor	r21, r21
    1742:	ba 01       	movw	r22, r20
    1744:	4c 19       	sub	r20, r12
    1746:	5d 09       	sbc	r21, r13
    1748:	6e 09       	sbc	r22, r14
    174a:	7f 09       	sbc	r23, r15
    174c:	ce 01       	movw	r24, r28
    174e:	2a e0       	ldi	r18, 0x0A	; 10
    1750:	0e 94 e6 0a 	call	0x15cc	;  0x15cc
    1754:	98 01       	movw	r18, r16
    1756:	28 0f       	add	r18, r24
    1758:	39 1f       	adc	r19, r25
    175a:	04 c0       	rjmp	.+8      	;  0x1764
    175c:	2a e0       	ldi	r18, 0x0A	; 10
    175e:	0e 94 e6 0a 	call	0x15cc	;  0x15cc
    1762:	9c 01       	movw	r18, r24
    1764:	c9 01       	movw	r24, r18
    1766:	df 91       	pop	r29
    1768:	cf 91       	pop	r28
    176a:	1f 91       	pop	r17
    176c:	0f 91       	pop	r16
    176e:	ff 90       	pop	r15
    1770:	ef 90       	pop	r14
    1772:	df 90       	pop	r13
    1774:	cf 90       	pop	r12
    1776:	08 95       	ret
    1778:	ef 92       	push	r14
    177a:	ff 92       	push	r15
    177c:	0f 93       	push	r16
    177e:	1f 93       	push	r17
    1780:	7b 01       	movw	r14, r22
    1782:	9a 01       	movw	r18, r20
    1784:	00 27       	eor	r16, r16
    1786:	f7 fc       	sbrc	r15, 7
    1788:	00 95       	com	r16
    178a:	10 2f       	mov	r17, r16
    178c:	b8 01       	movw	r22, r16
    178e:	a7 01       	movw	r20, r14
    1790:	0e 94 7c 0b 	call	0x16f8	;  0x16f8
    1794:	1f 91       	pop	r17
    1796:	0f 91       	pop	r16
    1798:	ff 90       	pop	r15
    179a:	ef 90       	pop	r14
    179c:	08 95       	ret
    179e:	0e 94 ca 0a 	call	0x1594	;  0x1594
    17a2:	08 95       	ret
    17a4:	7f 92       	push	r7
    17a6:	8f 92       	push	r8
    17a8:	9f 92       	push	r9
    17aa:	af 92       	push	r10
    17ac:	bf 92       	push	r11
    17ae:	cf 92       	push	r12
    17b0:	df 92       	push	r13
    17b2:	ef 92       	push	r14
    17b4:	ff 92       	push	r15
    17b6:	0f 93       	push	r16
    17b8:	1f 93       	push	r17
    17ba:	cf 93       	push	r28
    17bc:	df 93       	push	r29
    17be:	4c 01       	movw	r8, r24
    17c0:	7a 01       	movw	r14, r20
    17c2:	8b 01       	movw	r16, r22
    17c4:	72 2e       	mov	r7, r18
    17c6:	cb 01       	movw	r24, r22
    17c8:	ba 01       	movw	r22, r20
    17ca:	a8 01       	movw	r20, r16
    17cc:	97 01       	movw	r18, r14
    17ce:	0e 94 35 12 	call	0x246a	;  0x246a
    17d2:	88 23       	and	r24, r24
    17d4:	21 f0       	breq	.+8      	;  0x17de
    17d6:	c4 01       	movw	r24, r8
    17d8:	6a ea       	ldi	r22, 0xAA	; 170
    17da:	71 e0       	ldi	r23, 0x01	; 1
    17dc:	21 c0       	rjmp	.+66     	;  0x1820
    17de:	c0 e0       	ldi	r28, 0x00	; 0
    17e0:	d0 e0       	ldi	r29, 0x00	; 0
    17e2:	57 01       	movw	r10, r14
    17e4:	68 01       	movw	r12, r16
    17e6:	e8 94       	clt
    17e8:	d7 f8       	bld	r13, 7
    17ea:	c6 01       	movw	r24, r12
    17ec:	b5 01       	movw	r22, r10
    17ee:	2f ef       	ldi	r18, 0xFF	; 255
    17f0:	3f ef       	ldi	r19, 0xFF	; 255
    17f2:	4f e7       	ldi	r20, 0x7F	; 127
    17f4:	5f e7       	ldi	r21, 0x7F	; 127
    17f6:	0e 94 35 12 	call	0x246a	;  0x246a
    17fa:	88 23       	and	r24, r24
    17fc:	51 f4       	brne	.+20     	;  0x1812
    17fe:	c6 01       	movw	r24, r12
    1800:	b5 01       	movw	r22, r10
    1802:	2f ef       	ldi	r18, 0xFF	; 255
    1804:	3f ef       	ldi	r19, 0xFF	; 255
    1806:	4f e7       	ldi	r20, 0x7F	; 127
    1808:	5f e7       	ldi	r21, 0x7F	; 127
    180a:	0e 94 7f 10 	call	0x20fe	;  0x20fe
    180e:	18 16       	cp	r1, r24
    1810:	14 f0       	brlt	.+4      	;  0x1816
    1812:	c1 e0       	ldi	r28, 0x01	; 1
    1814:	d0 e0       	ldi	r29, 0x00	; 0
    1816:	21 97       	sbiw	r28, 0x01	; 1
    1818:	39 f0       	breq	.+14     	;  0x1828
    181a:	c4 01       	movw	r24, r8
    181c:	6e ea       	ldi	r22, 0xAE	; 174
    181e:	71 e0       	ldi	r23, 0x01	; 1
    1820:	0e 94 ca 0a 	call	0x1594	;  0x1594
    1824:	ec 01       	movw	r28, r24
    1826:	93 c0       	rjmp	.+294    	;  0x194e
    1828:	c8 01       	movw	r24, r16
    182a:	b7 01       	movw	r22, r14
    182c:	2f ef       	ldi	r18, 0xFF	; 255
    182e:	3f ef       	ldi	r19, 0xFF	; 255
    1830:	4f e7       	ldi	r20, 0x7F	; 127
    1832:	5f e4       	ldi	r21, 0x4F	; 79
    1834:	0e 94 ce 11 	call	0x239c	;  0x239c
    1838:	18 16       	cp	r1, r24
    183a:	54 f0       	brlt	.+20     	;  0x1850
    183c:	c8 01       	movw	r24, r16
    183e:	b7 01       	movw	r22, r14
    1840:	2f ef       	ldi	r18, 0xFF	; 255
    1842:	3f ef       	ldi	r19, 0xFF	; 255
    1844:	4f e7       	ldi	r20, 0x7F	; 127
    1846:	5f ec       	ldi	r21, 0xCF	; 207
    1848:	0e 94 7f 10 	call	0x20fe	;  0x20fe
    184c:	88 23       	and	r24, r24
    184e:	24 f4       	brge	.+8      	;  0x1858
    1850:	c4 01       	movw	r24, r8
    1852:	62 eb       	ldi	r22, 0xB2	; 178
    1854:	71 e0       	ldi	r23, 0x01	; 1
    1856:	e4 cf       	rjmp	.-56     	;  0x1820
    1858:	c8 01       	movw	r24, r16
    185a:	b7 01       	movw	r22, r14
    185c:	20 e0       	ldi	r18, 0x00	; 0
    185e:	30 e0       	ldi	r19, 0x00	; 0
    1860:	40 e0       	ldi	r20, 0x00	; 0
    1862:	50 e0       	ldi	r21, 0x00	; 0
    1864:	0e 94 7f 10 	call	0x20fe	;  0x20fe
    1868:	87 fd       	sbrc	r24, 7
    186a:	03 c0       	rjmp	.+6      	;  0x1872
    186c:	c0 e0       	ldi	r28, 0x00	; 0
    186e:	d0 e0       	ldi	r29, 0x00	; 0
    1870:	0e c0       	rjmp	.+28     	;  0x188e
    1872:	d4 01       	movw	r26, r8
    1874:	ed 91       	ld	r30, X+
    1876:	fc 91       	ld	r31, X
    1878:	01 90       	ld	r0, Z+
    187a:	f0 81       	ld	r31, Z
    187c:	e0 2d       	mov	r30, r0
    187e:	c4 01       	movw	r24, r8
    1880:	6d e2       	ldi	r22, 0x2D	; 45
    1882:	09 95       	icall
    1884:	ec 01       	movw	r28, r24
    1886:	17 fb       	bst	r17, 7
    1888:	10 95       	com	r17
    188a:	17 f9       	bld	r17, 7
    188c:	10 95       	com	r17
    188e:	20 e0       	ldi	r18, 0x00	; 0
    1890:	30 e0       	ldi	r19, 0x00	; 0
    1892:	40 e0       	ldi	r20, 0x00	; 0
    1894:	5f e3       	ldi	r21, 0x3F	; 63
    1896:	dd 24       	eor	r13, r13
    1898:	0b c0       	rjmp	.+22     	;  0x18b0
    189a:	ca 01       	movw	r24, r20
    189c:	b9 01       	movw	r22, r18
    189e:	20 e0       	ldi	r18, 0x00	; 0
    18a0:	30 e0       	ldi	r19, 0x00	; 0
    18a2:	40 e2       	ldi	r20, 0x20	; 32
    18a4:	51 e4       	ldi	r21, 0x41	; 65
    18a6:	0e 94 83 10 	call	0x2106	;  0x2106
    18aa:	9b 01       	movw	r18, r22
    18ac:	ac 01       	movw	r20, r24
    18ae:	d3 94       	inc	r13
    18b0:	d7 14       	cp	r13, r7
    18b2:	98 f3       	brcs	.-26     	;  0x189a
    18b4:	c8 01       	movw	r24, r16
    18b6:	b7 01       	movw	r22, r14
    18b8:	0e 94 1b 10 	call	0x2036	;  0x2036
    18bc:	5b 01       	movw	r10, r22
    18be:	6c 01       	movw	r12, r24
    18c0:	0e 94 f0 10 	call	0x21e0	;  0x21e0
    18c4:	7b 01       	movw	r14, r22
    18c6:	8c 01       	movw	r16, r24
    18c8:	c4 01       	movw	r24, r8
    18ca:	b8 01       	movw	r22, r16
    18cc:	a7 01       	movw	r20, r14
    18ce:	2a e0       	ldi	r18, 0x0A	; 10
    18d0:	30 e0       	ldi	r19, 0x00	; 0
    18d2:	0e 94 4a 0b 	call	0x1694	;  0x1694
    18d6:	c8 0f       	add	r28, r24
    18d8:	d9 1f       	adc	r29, r25
    18da:	77 20       	and	r7, r7
    18dc:	39 f0       	breq	.+14     	;  0x18ec
    18de:	c4 01       	movw	r24, r8
    18e0:	66 eb       	ldi	r22, 0xB6	; 182
    18e2:	71 e0       	ldi	r23, 0x01	; 1
    18e4:	0e 94 ca 0a 	call	0x1594	;  0x1594
    18e8:	c8 0f       	add	r28, r24
    18ea:	d9 1f       	adc	r29, r25
    18ec:	c8 01       	movw	r24, r16
    18ee:	b7 01       	movw	r22, r14
    18f0:	0e 94 1c 11 	call	0x2238	;  0x2238
    18f4:	9b 01       	movw	r18, r22
    18f6:	ac 01       	movw	r20, r24
    18f8:	c6 01       	movw	r24, r12
    18fa:	b5 01       	movw	r22, r10
    18fc:	0e 94 1a 10 	call	0x2034	;  0x2034
    1900:	24 c0       	rjmp	.+72     	;  0x194a
    1902:	20 e0       	ldi	r18, 0x00	; 0
    1904:	30 e0       	ldi	r19, 0x00	; 0
    1906:	40 e2       	ldi	r20, 0x20	; 32
    1908:	51 e4       	ldi	r21, 0x41	; 65
    190a:	0e 94 d2 11 	call	0x23a4	;  0x23a4
    190e:	7b 01       	movw	r14, r22
    1910:	8c 01       	movw	r16, r24
    1912:	0e 94 eb 10 	call	0x21d6	;  0x21d6
    1916:	5b 01       	movw	r10, r22
    1918:	6c 01       	movw	r12, r24
    191a:	cc 24       	eor	r12, r12
    191c:	b7 fc       	sbrc	r11, 7
    191e:	c0 94       	com	r12
    1920:	dc 2c       	mov	r13, r12
    1922:	c4 01       	movw	r24, r8
    1924:	b6 01       	movw	r22, r12
    1926:	a5 01       	movw	r20, r10
    1928:	2a e0       	ldi	r18, 0x0A	; 10
    192a:	30 e0       	ldi	r19, 0x00	; 0
    192c:	0e 94 7c 0b 	call	0x16f8	;  0x16f8
    1930:	c8 0f       	add	r28, r24
    1932:	d9 1f       	adc	r29, r25
    1934:	c6 01       	movw	r24, r12
    1936:	b5 01       	movw	r22, r10
    1938:	0e 94 1e 11 	call	0x223c	;  0x223c
    193c:	9b 01       	movw	r18, r22
    193e:	ac 01       	movw	r20, r24
    1940:	c8 01       	movw	r24, r16
    1942:	b7 01       	movw	r22, r14
    1944:	0e 94 1a 10 	call	0x2034	;  0x2034
    1948:	7a 94       	dec	r7
    194a:	77 20       	and	r7, r7
    194c:	d1 f6       	brne	.-76     	;  0x1902
    194e:	ce 01       	movw	r24, r28
    1950:	df 91       	pop	r29
    1952:	cf 91       	pop	r28
    1954:	1f 91       	pop	r17
    1956:	0f 91       	pop	r16
    1958:	ff 90       	pop	r15
    195a:	ef 90       	pop	r14
    195c:	df 90       	pop	r13
    195e:	cf 90       	pop	r12
    1960:	bf 90       	pop	r11
    1962:	af 90       	pop	r10
    1964:	9f 90       	pop	r9
    1966:	8f 90       	pop	r8
    1968:	7f 90       	pop	r7
    196a:	08 95       	ret
    196c:	0e 94 d2 0b 	call	0x17a4	;  0x17a4
    1970:	08 95       	ret
    1972:	af 92       	push	r10
    1974:	bf 92       	push	r11
    1976:	cf 92       	push	r12
    1978:	df 92       	push	r13
    197a:	ef 92       	push	r14
    197c:	ff 92       	push	r15
    197e:	0f 93       	push	r16
    1980:	1f 93       	push	r17
    1982:	cf 93       	push	r28
    1984:	df 93       	push	r29
    1986:	5c 01       	movw	r10, r24
    1988:	6b 01       	movw	r12, r22
    198a:	ee 24       	eor	r14, r14
    198c:	ff 24       	eor	r15, r15
    198e:	c0 e0       	ldi	r28, 0x00	; 0
    1990:	d0 e0       	ldi	r29, 0x00	; 0
    1992:	10 c0       	rjmp	.+32     	;  0x19b4
    1994:	d5 01       	movw	r26, r10
    1996:	ed 91       	ld	r30, X+
    1998:	fc 91       	ld	r31, X
    199a:	00 81       	ld	r16, Z
    199c:	11 81       	ldd	r17, Z+1	; 0x01
    199e:	c6 01       	movw	r24, r12
    19a0:	be 01       	movw	r22, r28
    19a2:	0e 94 ea 0e 	call	0x1dd4	;  0x1dd4
    19a6:	68 2f       	mov	r22, r24
    19a8:	c5 01       	movw	r24, r10
    19aa:	f8 01       	movw	r30, r16
    19ac:	09 95       	icall
    19ae:	e8 0e       	add	r14, r24
    19b0:	f9 1e       	adc	r15, r25
    19b2:	21 96       	adiw	r28, 0x01	; 1
    19b4:	f6 01       	movw	r30, r12
    19b6:	84 81       	ldd	r24, Z+4	; 0x04
    19b8:	95 81       	ldd	r25, Z+5	; 0x05
    19ba:	c8 17       	cp	r28, r24
    19bc:	d9 07       	cpc	r29, r25
    19be:	50 f3       	brcs	.-44     	;  0x1994
    19c0:	c7 01       	movw	r24, r14
    19c2:	df 91       	pop	r29
    19c4:	cf 91       	pop	r28
    19c6:	1f 91       	pop	r17
    19c8:	0f 91       	pop	r16
    19ca:	ff 90       	pop	r15
    19cc:	ef 90       	pop	r14
    19ce:	df 90       	pop	r13
    19d0:	cf 90       	pop	r12
    19d2:	bf 90       	pop	r11
    19d4:	af 90       	pop	r10
    19d6:	08 95       	ret
    19d8:	1f 92       	push	r1
    19da:	0f 92       	push	r0
    19dc:	0f b6       	in	r0, 0x3f	; 63
    19de:	0f 92       	push	r0
    19e0:	11 24       	eor	r1, r1
    19e2:	2f 93       	push	r18
    19e4:	3f 93       	push	r19
    19e6:	8f 93       	push	r24
    19e8:	9f 93       	push	r25
    19ea:	af 93       	push	r26
    19ec:	bf 93       	push	r27
    19ee:	80 91 c4 02 	lds	r24, 0x02C4
    19f2:	90 91 c5 02 	lds	r25, 0x02C5
    19f6:	a0 91 c6 02 	lds	r26, 0x02C6
    19fa:	b0 91 c7 02 	lds	r27, 0x02C7
    19fe:	30 91 c8 02 	lds	r19, 0x02C8
    1a02:	01 96       	adiw	r24, 0x01	; 1
    1a04:	a1 1d       	adc	r26, r1
    1a06:	b1 1d       	adc	r27, r1
    1a08:	23 2f       	mov	r18, r19
    1a0a:	2d 5f       	subi	r18, 0xFD	; 253
    1a0c:	2d 37       	cpi	r18, 0x7D	; 125
    1a0e:	20 f0       	brcs	.+8      	;  0x1a18
    1a10:	2d 57       	subi	r18, 0x7D	; 125
    1a12:	01 96       	adiw	r24, 0x01	; 1
    1a14:	a1 1d       	adc	r26, r1
    1a16:	b1 1d       	adc	r27, r1
    1a18:	20 93 c8 02 	sts	0x02C8, r18
    1a1c:	80 93 c4 02 	sts	0x02C4, r24
    1a20:	90 93 c5 02 	sts	0x02C5, r25
    1a24:	a0 93 c6 02 	sts	0x02C6, r26
    1a28:	b0 93 c7 02 	sts	0x02C7, r27
    1a2c:	80 91 c0 02 	lds	r24, 0x02C0
    1a30:	90 91 c1 02 	lds	r25, 0x02C1
    1a34:	a0 91 c2 02 	lds	r26, 0x02C2
    1a38:	b0 91 c3 02 	lds	r27, 0x02C3
    1a3c:	01 96       	adiw	r24, 0x01	; 1
    1a3e:	a1 1d       	adc	r26, r1
    1a40:	b1 1d       	adc	r27, r1
    1a42:	80 93 c0 02 	sts	0x02C0, r24
    1a46:	90 93 c1 02 	sts	0x02C1, r25
    1a4a:	a0 93 c2 02 	sts	0x02C2, r26
    1a4e:	b0 93 c3 02 	sts	0x02C3, r27
    1a52:	bf 91       	pop	r27
    1a54:	af 91       	pop	r26
    1a56:	9f 91       	pop	r25
    1a58:	8f 91       	pop	r24
    1a5a:	3f 91       	pop	r19
    1a5c:	2f 91       	pop	r18
    1a5e:	0f 90       	pop	r0
    1a60:	0f be       	out	0x3f, r0	; 63
    1a62:	0f 90       	pop	r0
    1a64:	1f 90       	pop	r1
    1a66:	18 95       	reti
    1a68:	8f b7       	in	r24, 0x3f	; 63
    1a6a:	f8 94       	cli
    1a6c:	20 91 c4 02 	lds	r18, 0x02C4
    1a70:	30 91 c5 02 	lds	r19, 0x02C5
    1a74:	40 91 c6 02 	lds	r20, 0x02C6
    1a78:	50 91 c7 02 	lds	r21, 0x02C7
    1a7c:	8f bf       	out	0x3f, r24	; 63
    1a7e:	b9 01       	movw	r22, r18
    1a80:	ca 01       	movw	r24, r20
    1a82:	08 95       	ret
    1a84:	9f b7       	in	r25, 0x3f	; 63
    1a86:	f8 94       	cli
    1a88:	20 91 c0 02 	lds	r18, 0x02C0
    1a8c:	30 91 c1 02 	lds	r19, 0x02C1
    1a90:	40 91 c2 02 	lds	r20, 0x02C2
    1a94:	50 91 c3 02 	lds	r21, 0x02C3
    1a98:	86 b5       	in	r24, 0x26	; 38
    1a9a:	a8 9b       	sbis	0x15, 0	; 21
    1a9c:	06 c0       	rjmp	.+12     	;  0x1aaa
    1a9e:	8f 3f       	cpi	r24, 0xFF	; 255
    1aa0:	21 f0       	breq	.+8      	;  0x1aaa
    1aa2:	2f 5f       	subi	r18, 0xFF	; 255
    1aa4:	3f 4f       	sbci	r19, 0xFF	; 255
    1aa6:	4f 4f       	sbci	r20, 0xFF	; 255
    1aa8:	5f 4f       	sbci	r21, 0xFF	; 255
    1aaa:	9f bf       	out	0x3f, r25	; 63
    1aac:	54 2f       	mov	r21, r20
    1aae:	43 2f       	mov	r20, r19
    1ab0:	32 2f       	mov	r19, r18
    1ab2:	22 27       	eor	r18, r18
    1ab4:	28 0f       	add	r18, r24
    1ab6:	31 1d       	adc	r19, r1
    1ab8:	41 1d       	adc	r20, r1
    1aba:	51 1d       	adc	r21, r1
    1abc:	82 e0       	ldi	r24, 0x02	; 2
    1abe:	22 0f       	add	r18, r18
    1ac0:	33 1f       	adc	r19, r19
    1ac2:	44 1f       	adc	r20, r20
    1ac4:	55 1f       	adc	r21, r21
    1ac6:	8a 95       	dec	r24
    1ac8:	d1 f7       	brne	.-12     	;  0x1abe
    1aca:	b9 01       	movw	r22, r18
    1acc:	ca 01       	movw	r24, r20
    1ace:	08 95       	ret
    1ad0:	01 97       	sbiw	r24, 0x01	; 1
    1ad2:	39 f0       	breq	.+14     	;  0x1ae2
    1ad4:	88 0f       	add	r24, r24
    1ad6:	99 1f       	adc	r25, r25
    1ad8:	88 0f       	add	r24, r24
    1ada:	99 1f       	adc	r25, r25
    1adc:	02 97       	sbiw	r24, 0x02	; 2
    1ade:	01 97       	sbiw	r24, 0x01	; 1
    1ae0:	f1 f7       	brne	.-4      	;  0x1ade
    1ae2:	08 95       	ret
    1ae4:	78 94       	sei
    1ae6:	84 b5       	in	r24, 0x24	; 36
    1ae8:	82 60       	ori	r24, 0x02	; 2
    1aea:	84 bd       	out	0x24, r24	; 36
    1aec:	84 b5       	in	r24, 0x24	; 36
    1aee:	81 60       	ori	r24, 0x01	; 1
    1af0:	84 bd       	out	0x24, r24	; 36
    1af2:	85 b5       	in	r24, 0x25	; 37
    1af4:	82 60       	ori	r24, 0x02	; 2
    1af6:	85 bd       	out	0x25, r24	; 37
    1af8:	85 b5       	in	r24, 0x25	; 37
    1afa:	81 60       	ori	r24, 0x01	; 1
    1afc:	85 bd       	out	0x25, r24	; 37
    1afe:	ee e6       	ldi	r30, 0x6E	; 110
    1b00:	f0 e0       	ldi	r31, 0x00	; 0
    1b02:	80 81       	ld	r24, Z
    1b04:	81 60       	ori	r24, 0x01	; 1
    1b06:	80 83       	st	Z, r24
    1b08:	e1 e8       	ldi	r30, 0x81	; 129
    1b0a:	f0 e0       	ldi	r31, 0x00	; 0
    1b0c:	10 82       	st	Z, r1
    1b0e:	80 81       	ld	r24, Z
    1b10:	82 60       	ori	r24, 0x02	; 2
    1b12:	80 83       	st	Z, r24
    1b14:	80 81       	ld	r24, Z
    1b16:	81 60       	ori	r24, 0x01	; 1
    1b18:	80 83       	st	Z, r24
    1b1a:	e0 e8       	ldi	r30, 0x80	; 128
    1b1c:	f0 e0       	ldi	r31, 0x00	; 0
    1b1e:	80 81       	ld	r24, Z
    1b20:	81 60       	ori	r24, 0x01	; 1
    1b22:	80 83       	st	Z, r24
    1b24:	e1 eb       	ldi	r30, 0xB1	; 177
    1b26:	f0 e0       	ldi	r31, 0x00	; 0
    1b28:	80 81       	ld	r24, Z
    1b2a:	84 60       	ori	r24, 0x04	; 4
    1b2c:	80 83       	st	Z, r24
    1b2e:	e0 eb       	ldi	r30, 0xB0	; 176
    1b30:	f0 e0       	ldi	r31, 0x00	; 0
    1b32:	80 81       	ld	r24, Z
    1b34:	81 60       	ori	r24, 0x01	; 1
    1b36:	80 83       	st	Z, r24
    1b38:	ea e7       	ldi	r30, 0x7A	; 122
    1b3a:	f0 e0       	ldi	r31, 0x00	; 0
    1b3c:	80 81       	ld	r24, Z
    1b3e:	84 60       	ori	r24, 0x04	; 4
    1b40:	80 83       	st	Z, r24
    1b42:	80 81       	ld	r24, Z
    1b44:	82 60       	ori	r24, 0x02	; 2
    1b46:	80 83       	st	Z, r24
    1b48:	80 81       	ld	r24, Z
    1b4a:	81 60       	ori	r24, 0x01	; 1
    1b4c:	80 83       	st	Z, r24
    1b4e:	80 81       	ld	r24, Z
    1b50:	80 68       	ori	r24, 0x80	; 128
    1b52:	80 83       	st	Z, r24
    1b54:	10 92 c1 00 	sts	0x00C1, r1
    1b58:	08 95       	ret
    1b5a:	80 93 c8 01 	sts	0x01C8, r24
    1b5e:	08 95       	ret
    1b60:	98 2f       	mov	r25, r24
    1b62:	8e 30       	cpi	r24, 0x0E	; 14
    1b64:	08 f0       	brcs	.+2      	;  0x1b68
    1b66:	9e 50       	subi	r25, 0x0E	; 14
    1b68:	97 70       	andi	r25, 0x07	; 7
    1b6a:	80 91 c8 01 	lds	r24, 0x01C8
    1b6e:	82 95       	swap	r24
    1b70:	88 0f       	add	r24, r24
    1b72:	88 0f       	add	r24, r24
    1b74:	80 7c       	andi	r24, 0xC0	; 192
    1b76:	89 2b       	or	r24, r25
    1b78:	80 93 7c 00 	sts	0x007C, r24
    1b7c:	80 91 7a 00 	lds	r24, 0x007A
    1b80:	80 64       	ori	r24, 0x40	; 64
    1b82:	80 93 7a 00 	sts	0x007A, r24
    1b86:	80 91 7a 00 	lds	r24, 0x007A
    1b8a:	86 fd       	sbrc	r24, 6
    1b8c:	fc cf       	rjmp	.-8      	;  0x1b86
    1b8e:	20 91 78 00 	lds	r18, 0x0078
    1b92:	40 91 79 00 	lds	r20, 0x0079
    1b96:	94 2f       	mov	r25, r20
    1b98:	80 e0       	ldi	r24, 0x00	; 0
    1b9a:	30 e0       	ldi	r19, 0x00	; 0
    1b9c:	28 2b       	or	r18, r24
    1b9e:	39 2b       	or	r19, r25
    1ba0:	c9 01       	movw	r24, r18
    1ba2:	08 95       	ret
    1ba4:	cf 93       	push	r28
    1ba6:	df 93       	push	r29
    1ba8:	48 2f       	mov	r20, r24
    1baa:	50 e0       	ldi	r21, 0x00	; 0
    1bac:	ca 01       	movw	r24, r20
    1bae:	86 56       	subi	r24, 0x66	; 102
    1bb0:	9f 4f       	sbci	r25, 0xFF	; 255
    1bb2:	fc 01       	movw	r30, r24
    1bb4:	34 91       	lpm	r19, Z+
    1bb6:	4a 57       	subi	r20, 0x7A	; 122
    1bb8:	5f 4f       	sbci	r21, 0xFF	; 255
    1bba:	fa 01       	movw	r30, r20
    1bbc:	84 91       	lpm	r24, Z+
    1bbe:	88 23       	and	r24, r24
    1bc0:	69 f1       	breq	.+90     	;  0x1c1c
    1bc2:	90 e0       	ldi	r25, 0x00	; 0
    1bc4:	88 0f       	add	r24, r24
    1bc6:	99 1f       	adc	r25, r25
    1bc8:	fc 01       	movw	r30, r24
    1bca:	e8 59       	subi	r30, 0x98	; 152
    1bcc:	ff 4f       	sbci	r31, 0xFF	; 255
    1bce:	a5 91       	lpm	r26, Z+
    1bd0:	b4 91       	lpm	r27, Z+
    1bd2:	fc 01       	movw	r30, r24
    1bd4:	ee 58       	subi	r30, 0x8E	; 142
    1bd6:	ff 4f       	sbci	r31, 0xFF	; 255
    1bd8:	c5 91       	lpm	r28, Z+
    1bda:	d4 91       	lpm	r29, Z+
    1bdc:	66 23       	and	r22, r22
    1bde:	51 f4       	brne	.+20     	;  0x1bf4
    1be0:	2f b7       	in	r18, 0x3f	; 63
    1be2:	f8 94       	cli
    1be4:	8c 91       	ld	r24, X
    1be6:	93 2f       	mov	r25, r19
    1be8:	90 95       	com	r25
    1bea:	89 23       	and	r24, r25
    1bec:	8c 93       	st	X, r24
    1bee:	88 81       	ld	r24, Y
    1bf0:	89 23       	and	r24, r25
    1bf2:	0b c0       	rjmp	.+22     	;  0x1c0a
    1bf4:	62 30       	cpi	r22, 0x02	; 2
    1bf6:	61 f4       	brne	.+24     	;  0x1c10
    1bf8:	2f b7       	in	r18, 0x3f	; 63
    1bfa:	f8 94       	cli
    1bfc:	8c 91       	ld	r24, X
    1bfe:	93 2f       	mov	r25, r19
    1c00:	90 95       	com	r25
    1c02:	89 23       	and	r24, r25
    1c04:	8c 93       	st	X, r24
    1c06:	88 81       	ld	r24, Y
    1c08:	83 2b       	or	r24, r19
    1c0a:	88 83       	st	Y, r24
    1c0c:	2f bf       	out	0x3f, r18	; 63
    1c0e:	06 c0       	rjmp	.+12     	;  0x1c1c
    1c10:	9f b7       	in	r25, 0x3f	; 63
    1c12:	f8 94       	cli
    1c14:	8c 91       	ld	r24, X
    1c16:	83 2b       	or	r24, r19
    1c18:	8c 93       	st	X, r24
    1c1a:	9f bf       	out	0x3f, r25	; 63
    1c1c:	df 91       	pop	r29
    1c1e:	cf 91       	pop	r28
    1c20:	08 95       	ret
    1c22:	83 30       	cpi	r24, 0x03	; 3
    1c24:	71 f0       	breq	.+28     	;  0x1c42
    1c26:	84 30       	cpi	r24, 0x04	; 4
    1c28:	28 f4       	brcc	.+10     	;  0x1c34
    1c2a:	81 30       	cpi	r24, 0x01	; 1
    1c2c:	a1 f0       	breq	.+40     	;  0x1c56
    1c2e:	82 30       	cpi	r24, 0x02	; 2
    1c30:	21 f5       	brne	.+72     	;  0x1c7a
    1c32:	14 c0       	rjmp	.+40     	;  0x1c5c
    1c34:	86 30       	cpi	r24, 0x06	; 6
    1c36:	b1 f0       	breq	.+44     	;  0x1c64
    1c38:	87 30       	cpi	r24, 0x07	; 7
    1c3a:	d1 f0       	breq	.+52     	;  0x1c70
    1c3c:	84 30       	cpi	r24, 0x04	; 4
    1c3e:	e9 f4       	brne	.+58     	;  0x1c7a
    1c40:	04 c0       	rjmp	.+8      	;  0x1c4a
    1c42:	80 91 80 00 	lds	r24, 0x0080
    1c46:	8f 77       	andi	r24, 0x7F	; 127
    1c48:	03 c0       	rjmp	.+6      	;  0x1c50
    1c4a:	80 91 80 00 	lds	r24, 0x0080
    1c4e:	8f 7d       	andi	r24, 0xDF	; 223
    1c50:	80 93 80 00 	sts	0x0080, r24
    1c54:	08 95       	ret
    1c56:	84 b5       	in	r24, 0x24	; 36
    1c58:	8f 77       	andi	r24, 0x7F	; 127
    1c5a:	02 c0       	rjmp	.+4      	;  0x1c60
    1c5c:	84 b5       	in	r24, 0x24	; 36
    1c5e:	8f 7d       	andi	r24, 0xDF	; 223
    1c60:	84 bd       	out	0x24, r24	; 36
    1c62:	08 95       	ret
    1c64:	80 91 b0 00 	lds	r24, 0x00B0
    1c68:	8f 77       	andi	r24, 0x7F	; 127
    1c6a:	80 93 b0 00 	sts	0x00B0, r24
    1c6e:	08 95       	ret
    1c70:	80 91 b0 00 	lds	r24, 0x00B0
    1c74:	8f 7d       	andi	r24, 0xDF	; 223
    1c76:	80 93 b0 00 	sts	0x00B0, r24
    1c7a:	08 95       	ret
    1c7c:	ff 92       	push	r15
    1c7e:	0f 93       	push	r16
    1c80:	1f 93       	push	r17
    1c82:	f6 2e       	mov	r15, r22
    1c84:	48 2f       	mov	r20, r24
    1c86:	50 e0       	ldi	r21, 0x00	; 0
    1c88:	ca 01       	movw	r24, r20
    1c8a:	82 55       	subi	r24, 0x52	; 82
    1c8c:	9f 4f       	sbci	r25, 0xFF	; 255
    1c8e:	fc 01       	movw	r30, r24
    1c90:	24 91       	lpm	r18, Z+
    1c92:	ca 01       	movw	r24, r20
    1c94:	86 56       	subi	r24, 0x66	; 102
    1c96:	9f 4f       	sbci	r25, 0xFF	; 255
    1c98:	fc 01       	movw	r30, r24
    1c9a:	14 91       	lpm	r17, Z+
    1c9c:	4a 57       	subi	r20, 0x7A	; 122
    1c9e:	5f 4f       	sbci	r21, 0xFF	; 255
    1ca0:	fa 01       	movw	r30, r20
    1ca2:	04 91       	lpm	r16, Z+
    1ca4:	00 23       	and	r16, r16
    1ca6:	c9 f0       	breq	.+50     	;  0x1cda
    1ca8:	22 23       	and	r18, r18
    1caa:	19 f0       	breq	.+6      	;  0x1cb2
    1cac:	82 2f       	mov	r24, r18
    1cae:	0e 94 11 0e 	call	0x1c22	;  0x1c22
    1cb2:	e0 2f       	mov	r30, r16
    1cb4:	f0 e0       	ldi	r31, 0x00	; 0
    1cb6:	ee 0f       	add	r30, r30
    1cb8:	ff 1f       	adc	r31, r31
    1cba:	ee 58       	subi	r30, 0x8E	; 142
    1cbc:	ff 4f       	sbci	r31, 0xFF	; 255
    1cbe:	a5 91       	lpm	r26, Z+
    1cc0:	b4 91       	lpm	r27, Z+
    1cc2:	9f b7       	in	r25, 0x3f	; 63
    1cc4:	f8 94       	cli
    1cc6:	ff 20       	and	r15, r15
    1cc8:	21 f4       	brne	.+8      	;  0x1cd2
    1cca:	8c 91       	ld	r24, X
    1ccc:	10 95       	com	r17
    1cce:	81 23       	and	r24, r17
    1cd0:	02 c0       	rjmp	.+4      	;  0x1cd6
    1cd2:	8c 91       	ld	r24, X
    1cd4:	81 2b       	or	r24, r17
    1cd6:	8c 93       	st	X, r24
    1cd8:	9f bf       	out	0x3f, r25	; 63
    1cda:	1f 91       	pop	r17
    1cdc:	0f 91       	pop	r16
    1cde:	ff 90       	pop	r15
    1ce0:	08 95       	ret
    1ce2:	0f 93       	push	r16
    1ce4:	1f 93       	push	r17
    1ce6:	48 2f       	mov	r20, r24
    1ce8:	50 e0       	ldi	r21, 0x00	; 0
    1cea:	ca 01       	movw	r24, r20
    1cec:	82 55       	subi	r24, 0x52	; 82
    1cee:	9f 4f       	sbci	r25, 0xFF	; 255
    1cf0:	fc 01       	movw	r30, r24
    1cf2:	24 91       	lpm	r18, Z+
    1cf4:	ca 01       	movw	r24, r20
    1cf6:	86 56       	subi	r24, 0x66	; 102
    1cf8:	9f 4f       	sbci	r25, 0xFF	; 255
    1cfa:	fc 01       	movw	r30, r24
    1cfc:	04 91       	lpm	r16, Z+
    1cfe:	4a 57       	subi	r20, 0x7A	; 122
    1d00:	5f 4f       	sbci	r21, 0xFF	; 255
    1d02:	fa 01       	movw	r30, r20
    1d04:	14 91       	lpm	r17, Z+
    1d06:	11 23       	and	r17, r17
    1d08:	19 f4       	brne	.+6      	;  0x1d10
    1d0a:	20 e0       	ldi	r18, 0x00	; 0
    1d0c:	30 e0       	ldi	r19, 0x00	; 0
    1d0e:	15 c0       	rjmp	.+42     	;  0x1d3a
    1d10:	22 23       	and	r18, r18
    1d12:	19 f0       	breq	.+6      	;  0x1d1a
    1d14:	82 2f       	mov	r24, r18
    1d16:	0e 94 11 0e 	call	0x1c22	;  0x1c22
    1d1a:	81 2f       	mov	r24, r17
    1d1c:	90 e0       	ldi	r25, 0x00	; 0
    1d1e:	88 0f       	add	r24, r24
    1d20:	99 1f       	adc	r25, r25
    1d22:	84 58       	subi	r24, 0x84	; 132
    1d24:	9f 4f       	sbci	r25, 0xFF	; 255
    1d26:	fc 01       	movw	r30, r24
    1d28:	a5 91       	lpm	r26, Z+
    1d2a:	b4 91       	lpm	r27, Z+
    1d2c:	8c 91       	ld	r24, X
    1d2e:	20 e0       	ldi	r18, 0x00	; 0
    1d30:	30 e0       	ldi	r19, 0x00	; 0
    1d32:	80 23       	and	r24, r16
    1d34:	11 f0       	breq	.+4      	;  0x1d3a
    1d36:	21 e0       	ldi	r18, 0x01	; 1
    1d38:	30 e0       	ldi	r19, 0x00	; 0
    1d3a:	c9 01       	movw	r24, r18
    1d3c:	1f 91       	pop	r17
    1d3e:	0f 91       	pop	r16
    1d40:	08 95       	ret
    1d42:	2f 92       	push	r2
    1d44:	3f 92       	push	r3
    1d46:	4f 92       	push	r4
    1d48:	5f 92       	push	r5
    1d4a:	6f 92       	push	r6
    1d4c:	7f 92       	push	r7
    1d4e:	8f 92       	push	r8
    1d50:	9f 92       	push	r9
    1d52:	af 92       	push	r10
    1d54:	bf 92       	push	r11
    1d56:	cf 92       	push	r12
    1d58:	df 92       	push	r13
    1d5a:	ef 92       	push	r14
    1d5c:	ff 92       	push	r15
    1d5e:	0f 93       	push	r16
    1d60:	1f 93       	push	r17
    1d62:	df 93       	push	r29
    1d64:	cf 93       	push	r28
    1d66:	cd b7       	in	r28, 0x3d	; 61
    1d68:	de b7       	in	r29, 0x3e	; 62
    1d6a:	3b 01       	movw	r6, r22
    1d6c:	4c 01       	movw	r8, r24
    1d6e:	19 01       	movw	r2, r18
    1d70:	2a 01       	movw	r4, r20
    1d72:	6d 89       	ldd	r22, Y+21	; 0x15
    1d74:	7e 89       	ldd	r23, Y+22	; 0x16
    1d76:	8f 89       	ldd	r24, Y+23	; 0x17
    1d78:	98 8d       	ldd	r25, Y+24	; 0x18
    1d7a:	6a 19       	sub	r22, r10
    1d7c:	7b 09       	sbc	r23, r11
    1d7e:	8c 09       	sbc	r24, r12
    1d80:	9d 09       	sbc	r25, r13
    1d82:	62 1a       	sub	r6, r18
    1d84:	73 0a       	sbc	r7, r19
    1d86:	84 0a       	sbc	r8, r20
    1d88:	95 0a       	sbc	r9, r21
    1d8a:	a4 01       	movw	r20, r8
    1d8c:	93 01       	movw	r18, r6
    1d8e:	0e 94 39 12 	call	0x2472	;  0x2472
    1d92:	e2 18       	sub	r14, r2
    1d94:	f3 08       	sbc	r15, r3
    1d96:	04 09       	sbc	r16, r4
    1d98:	15 09       	sbc	r17, r5
    1d9a:	a8 01       	movw	r20, r16
    1d9c:	97 01       	movw	r18, r14
    1d9e:	0e 94 7a 12 	call	0x24f4	;  0x24f4
    1da2:	2a 0d       	add	r18, r10
    1da4:	3b 1d       	adc	r19, r11
    1da6:	4c 1d       	adc	r20, r12
    1da8:	5d 1d       	adc	r21, r13
    1daa:	b9 01       	movw	r22, r18
    1dac:	ca 01       	movw	r24, r20
    1dae:	cf 91       	pop	r28
    1db0:	df 91       	pop	r29
    1db2:	1f 91       	pop	r17
    1db4:	0f 91       	pop	r16
    1db6:	ff 90       	pop	r15
    1db8:	ef 90       	pop	r14
    1dba:	df 90       	pop	r13
    1dbc:	cf 90       	pop	r12
    1dbe:	bf 90       	pop	r11
    1dc0:	af 90       	pop	r10
    1dc2:	9f 90       	pop	r9
    1dc4:	8f 90       	pop	r8
    1dc6:	7f 90       	pop	r7
    1dc8:	6f 90       	pop	r6
    1dca:	5f 90       	pop	r5
    1dcc:	4f 90       	pop	r4
    1dce:	3f 90       	pop	r3
    1dd0:	2f 90       	pop	r2
    1dd2:	08 95       	ret
    1dd4:	fc 01       	movw	r30, r24
    1dd6:	84 81       	ldd	r24, Z+4	; 0x04
    1dd8:	95 81       	ldd	r25, Z+5	; 0x05
    1dda:	68 17       	cp	r22, r24
    1ddc:	79 07       	cpc	r23, r25
    1dde:	48 f4       	brcc	.+18     	;  0x1df2
    1de0:	01 90       	ld	r0, Z+
    1de2:	f0 81       	ld	r31, Z
    1de4:	e0 2d       	mov	r30, r0
    1de6:	30 97       	sbiw	r30, 0x00	; 0
    1de8:	21 f0       	breq	.+8      	;  0x1df2
    1dea:	e6 0f       	add	r30, r22
    1dec:	f7 1f       	adc	r31, r23
    1dee:	80 81       	ld	r24, Z
    1df0:	08 95       	ret
    1df2:	80 e0       	ldi	r24, 0x00	; 0
    1df4:	08 95       	ret
    1df6:	dc 01       	movw	r26, r24
    1df8:	fb 01       	movw	r30, r22
    1dfa:	14 96       	adiw	r26, 0x04	; 4
    1dfc:	8d 91       	ld	r24, X+
    1dfe:	9c 91       	ld	r25, X
    1e00:	15 97       	sbiw	r26, 0x05	; 5
    1e02:	89 2b       	or	r24, r25
    1e04:	31 f4       	brne	.+12     	;  0x1e12
    1e06:	61 15       	cp	r22, r1
    1e08:	71 05       	cpc	r23, r1
    1e0a:	a9 f0       	breq	.+42     	;  0x1e36
    1e0c:	90 e0       	ldi	r25, 0x00	; 0
    1e0e:	80 81       	ld	r24, Z
    1e10:	08 c0       	rjmp	.+16     	;  0x1e22
    1e12:	0d 90       	ld	r0, X+
    1e14:	bc 91       	ld	r27, X
    1e16:	a0 2d       	mov	r26, r0
    1e18:	61 15       	cp	r22, r1
    1e1a:	71 05       	cpc	r23, r1
    1e1c:	29 f4       	brne	.+10     	;  0x1e28
    1e1e:	90 e0       	ldi	r25, 0x00	; 0
    1e20:	8c 91       	ld	r24, X
    1e22:	88 23       	and	r24, r24
    1e24:	49 f4       	brne	.+18     	;  0x1e38
    1e26:	07 c0       	rjmp	.+14     	;  0x1e36
    1e28:	cd 01       	movw	r24, r26
    1e2a:	0e 94 6c 02 	call	0x4d8	;  0x4d8
    1e2e:	9c 01       	movw	r18, r24
    1e30:	90 e0       	ldi	r25, 0x00	; 0
    1e32:	23 2b       	or	r18, r19
    1e34:	09 f4       	brne	.+2      	;  0x1e38
    1e36:	91 e0       	ldi	r25, 0x01	; 1
    1e38:	89 2f       	mov	r24, r25
    1e3a:	08 95       	ret
    1e3c:	cf 93       	push	r28
    1e3e:	df 93       	push	r29
    1e40:	9c 01       	movw	r18, r24
    1e42:	fb 01       	movw	r30, r22
    1e44:	ec 01       	movw	r28, r24
    1e46:	a8 81       	ld	r26, Y
    1e48:	b9 81       	ldd	r27, Y+1	; 0x01
    1e4a:	10 97       	sbiw	r26, 0x00	; 0
    1e4c:	29 f0       	breq	.+10     	;  0x1e58
    1e4e:	60 81       	ld	r22, Z
    1e50:	71 81       	ldd	r23, Z+1	; 0x01
    1e52:	61 15       	cp	r22, r1
    1e54:	71 05       	cpc	r23, r1
    1e56:	d1 f4       	brne	.+52     	;  0x1e8c
    1e58:	c0 81       	ld	r28, Z
    1e5a:	d1 81       	ldd	r29, Z+1	; 0x01
    1e5c:	20 97       	sbiw	r28, 0x00	; 0
    1e5e:	59 f0       	breq	.+22     	;  0x1e76
    1e60:	84 81       	ldd	r24, Z+4	; 0x04
    1e62:	95 81       	ldd	r25, Z+5	; 0x05
    1e64:	89 2b       	or	r24, r25
    1e66:	39 f0       	breq	.+14     	;  0x1e76
    1e68:	88 81       	ld	r24, Y
    1e6a:	90 e0       	ldi	r25, 0x00	; 0
    1e6c:	22 27       	eor	r18, r18
    1e6e:	33 27       	eor	r19, r19
    1e70:	28 1b       	sub	r18, r24
    1e72:	39 0b       	sbc	r19, r25
    1e74:	12 c0       	rjmp	.+36     	;  0x1e9a
    1e76:	10 97       	sbiw	r26, 0x00	; 0
    1e78:	71 f0       	breq	.+28     	;  0x1e96
    1e7a:	f9 01       	movw	r30, r18
    1e7c:	84 81       	ldd	r24, Z+4	; 0x04
    1e7e:	95 81       	ldd	r25, Z+5	; 0x05
    1e80:	89 2b       	or	r24, r25
    1e82:	49 f0       	breq	.+18     	;  0x1e96
    1e84:	8c 91       	ld	r24, X
    1e86:	28 2f       	mov	r18, r24
    1e88:	30 e0       	ldi	r19, 0x00	; 0
    1e8a:	07 c0       	rjmp	.+14     	;  0x1e9a
    1e8c:	cd 01       	movw	r24, r26
    1e8e:	0e 94 6c 02 	call	0x4d8	;  0x4d8
    1e92:	9c 01       	movw	r18, r24
    1e94:	02 c0       	rjmp	.+4      	;  0x1e9a
    1e96:	20 e0       	ldi	r18, 0x00	; 0
    1e98:	30 e0       	ldi	r19, 0x00	; 0
    1e9a:	c9 01       	movw	r24, r18
    1e9c:	df 91       	pop	r29
    1e9e:	cf 91       	pop	r28
    1ea0:	08 95       	ret
    1ea2:	0f 93       	push	r16
    1ea4:	1f 93       	push	r17
    1ea6:	cf 93       	push	r28
    1ea8:	df 93       	push	r29
    1eaa:	ec 01       	movw	r28, r24
    1eac:	8b 01       	movw	r16, r22
    1eae:	6f 5f       	subi	r22, 0xFF	; 255
    1eb0:	7f 4f       	sbci	r23, 0xFF	; 255
    1eb2:	88 81       	ld	r24, Y
    1eb4:	99 81       	ldd	r25, Y+1	; 0x01
    1eb6:	0e 94 8e 01 	call	0x31c	;  0x31c
    1eba:	00 97       	sbiw	r24, 0x00	; 0
    1ebc:	11 f4       	brne	.+4      	;  0x1ec2
    1ebe:	80 e0       	ldi	r24, 0x00	; 0
    1ec0:	05 c0       	rjmp	.+10     	;  0x1ecc
    1ec2:	99 83       	std	Y+1, r25	; 0x01
    1ec4:	88 83       	st	Y, r24
    1ec6:	1b 83       	std	Y+3, r17	; 0x03
    1ec8:	0a 83       	std	Y+2, r16	; 0x02
    1eca:	81 e0       	ldi	r24, 0x01	; 1
    1ecc:	df 91       	pop	r29
    1ece:	cf 91       	pop	r28
    1ed0:	1f 91       	pop	r17
    1ed2:	0f 91       	pop	r16
    1ed4:	08 95       	ret
    1ed6:	cf 93       	push	r28
    1ed8:	df 93       	push	r29
    1eda:	ec 01       	movw	r28, r24
    1edc:	88 81       	ld	r24, Y
    1ede:	99 81       	ldd	r25, Y+1	; 0x01
    1ee0:	89 2b       	or	r24, r25
    1ee2:	29 f0       	breq	.+10     	;  0x1eee
    1ee4:	8a 81       	ldd	r24, Y+2	; 0x02
    1ee6:	9b 81       	ldd	r25, Y+3	; 0x03
    1ee8:	86 17       	cp	r24, r22
    1eea:	97 07       	cpc	r25, r23
    1eec:	60 f4       	brcc	.+24     	;  0x1f06
    1eee:	ce 01       	movw	r24, r28
    1ef0:	0e 94 51 0f 	call	0x1ea2	;  0x1ea2
    1ef4:	88 23       	and	r24, r24
    1ef6:	41 f0       	breq	.+16     	;  0x1f08
    1ef8:	8c 81       	ldd	r24, Y+4	; 0x04
    1efa:	9d 81       	ldd	r25, Y+5	; 0x05
    1efc:	89 2b       	or	r24, r25
    1efe:	19 f4       	brne	.+6      	;  0x1f06
    1f00:	e8 81       	ld	r30, Y
    1f02:	f9 81       	ldd	r31, Y+1	; 0x01
    1f04:	10 82       	st	Z, r1
    1f06:	81 e0       	ldi	r24, 0x01	; 1
    1f08:	df 91       	pop	r29
    1f0a:	cf 91       	pop	r28
    1f0c:	08 95       	ret
    1f0e:	ef 92       	push	r14
    1f10:	ff 92       	push	r15
    1f12:	0f 93       	push	r16
    1f14:	1f 93       	push	r17
    1f16:	cf 93       	push	r28
    1f18:	df 93       	push	r29
    1f1a:	ec 01       	movw	r28, r24
    1f1c:	7b 01       	movw	r14, r22
    1f1e:	6c 81       	ldd	r22, Y+4	; 0x04
    1f20:	7d 81       	ldd	r23, Y+5	; 0x05
    1f22:	e1 14       	cp	r14, r1
    1f24:	f1 04       	cpc	r15, r1
    1f26:	c1 f0       	breq	.+48     	;  0x1f58
    1f28:	41 15       	cp	r20, r1
    1f2a:	51 05       	cpc	r21, r1
    1f2c:	99 f0       	breq	.+38     	;  0x1f54
    1f2e:	8a 01       	movw	r16, r20
    1f30:	06 0f       	add	r16, r22
    1f32:	17 1f       	adc	r17, r23
    1f34:	b8 01       	movw	r22, r16
    1f36:	0e 94 6b 0f 	call	0x1ed6	;  0x1ed6
    1f3a:	88 23       	and	r24, r24
    1f3c:	69 f0       	breq	.+26     	;  0x1f58
    1f3e:	88 81       	ld	r24, Y
    1f40:	99 81       	ldd	r25, Y+1	; 0x01
    1f42:	2c 81       	ldd	r18, Y+4	; 0x04
    1f44:	3d 81       	ldd	r19, Y+5	; 0x05
    1f46:	82 0f       	add	r24, r18
    1f48:	93 1f       	adc	r25, r19
    1f4a:	b7 01       	movw	r22, r14
    1f4c:	0e 94 75 02 	call	0x4ea	;  0x4ea
    1f50:	1d 83       	std	Y+5, r17	; 0x05
    1f52:	0c 83       	std	Y+4, r16	; 0x04
    1f54:	81 e0       	ldi	r24, 0x01	; 1
    1f56:	01 c0       	rjmp	.+2      	;  0x1f5a
    1f58:	80 e0       	ldi	r24, 0x00	; 0
    1f5a:	df 91       	pop	r29
    1f5c:	cf 91       	pop	r28
    1f5e:	1f 91       	pop	r17
    1f60:	0f 91       	pop	r16
    1f62:	ff 90       	pop	r15
    1f64:	ef 90       	pop	r14
    1f66:	08 95       	ret
    1f68:	df 93       	push	r29
    1f6a:	cf 93       	push	r28
    1f6c:	00 d0       	rcall	.+0      	;  0x1f6e
    1f6e:	cd b7       	in	r28, 0x3d	; 61
    1f70:	de b7       	in	r29, 0x3e	; 62
    1f72:	69 83       	std	Y+1, r22	; 0x01
    1f74:	1a 82       	std	Y+2, r1	; 0x02
    1f76:	be 01       	movw	r22, r28
    1f78:	6f 5f       	subi	r22, 0xFF	; 255
    1f7a:	7f 4f       	sbci	r23, 0xFF	; 255
    1f7c:	41 e0       	ldi	r20, 0x01	; 1
    1f7e:	50 e0       	ldi	r21, 0x00	; 0
    1f80:	0e 94 87 0f 	call	0x1f0e	;  0x1f0e
    1f84:	0f 90       	pop	r0
    1f86:	0f 90       	pop	r0
    1f88:	cf 91       	pop	r28
    1f8a:	df 91       	pop	r29
    1f8c:	08 95       	ret
    1f8e:	cf 93       	push	r28
    1f90:	df 93       	push	r29
    1f92:	ec 01       	movw	r28, r24
    1f94:	88 81       	ld	r24, Y
    1f96:	99 81       	ldd	r25, Y+1	; 0x01
    1f98:	00 97       	sbiw	r24, 0x00	; 0
    1f9a:	11 f0       	breq	.+4      	;  0x1fa0
    1f9c:	0e 94 36 01 	call	0x26c	;  0x26c
    1fa0:	19 82       	std	Y+1, r1	; 0x01
    1fa2:	18 82       	st	Y, r1
    1fa4:	1d 82       	std	Y+5, r1	; 0x05
    1fa6:	1c 82       	std	Y+4, r1	; 0x04
    1fa8:	1b 82       	std	Y+3, r1	; 0x03
    1faa:	1a 82       	std	Y+2, r1	; 0x02
    1fac:	df 91       	pop	r29
    1fae:	cf 91       	pop	r28
    1fb0:	08 95       	ret
    1fb2:	ef 92       	push	r14
    1fb4:	ff 92       	push	r15
    1fb6:	0f 93       	push	r16
    1fb8:	1f 93       	push	r17
    1fba:	cf 93       	push	r28
    1fbc:	df 93       	push	r29
    1fbe:	ec 01       	movw	r28, r24
    1fc0:	7b 01       	movw	r14, r22
    1fc2:	8a 01       	movw	r16, r20
    1fc4:	ba 01       	movw	r22, r20
    1fc6:	0e 94 6b 0f 	call	0x1ed6	;  0x1ed6
    1fca:	88 23       	and	r24, r24
    1fcc:	21 f4       	brne	.+8      	;  0x1fd6
    1fce:	ce 01       	movw	r24, r28
    1fd0:	0e 94 c7 0f 	call	0x1f8e	;  0x1f8e
    1fd4:	07 c0       	rjmp	.+14     	;  0x1fe4
    1fd6:	1d 83       	std	Y+5, r17	; 0x05
    1fd8:	0c 83       	std	Y+4, r16	; 0x04
    1fda:	88 81       	ld	r24, Y
    1fdc:	99 81       	ldd	r25, Y+1	; 0x01
    1fde:	b7 01       	movw	r22, r14
    1fe0:	0e 94 75 02 	call	0x4ea	;  0x4ea
    1fe4:	ce 01       	movw	r24, r28
    1fe6:	df 91       	pop	r29
    1fe8:	cf 91       	pop	r28
    1fea:	1f 91       	pop	r17
    1fec:	0f 91       	pop	r16
    1fee:	ff 90       	pop	r15
    1ff0:	ef 90       	pop	r14
    1ff2:	08 95       	ret
    1ff4:	cf 93       	push	r28
    1ff6:	df 93       	push	r29
    1ff8:	ec 01       	movw	r28, r24
    1ffa:	19 82       	std	Y+1, r1	; 0x01
    1ffc:	18 82       	st	Y, r1
    1ffe:	1b 82       	std	Y+3, r1	; 0x03
    2000:	1a 82       	std	Y+2, r1	; 0x02
    2002:	1d 82       	std	Y+5, r1	; 0x05
    2004:	1c 82       	std	Y+4, r1	; 0x04
    2006:	1e 82       	std	Y+6, r1	; 0x06
    2008:	61 15       	cp	r22, r1
    200a:	71 05       	cpc	r23, r1
    200c:	51 f0       	breq	.+20     	;  0x2022
    200e:	db 01       	movw	r26, r22
    2010:	0d 90       	ld	r0, X+
    2012:	00 20       	and	r0, r0
    2014:	e9 f7       	brne	.-6      	;  0x2010
    2016:	11 97       	sbiw	r26, 0x01	; 1
    2018:	a6 1b       	sub	r26, r22
    201a:	b7 0b       	sbc	r27, r23
    201c:	ad 01       	movw	r20, r26
    201e:	0e 94 d9 0f 	call	0x1fb2	;  0x1fb2
    2022:	df 91       	pop	r29
    2024:	cf 91       	pop	r28
    2026:	08 95       	ret
    2028:	fc 01       	movw	r30, r24
    202a:	80 81       	ld	r24, Z
    202c:	91 81       	ldd	r25, Z+1	; 0x01
    202e:	0e 94 36 01 	call	0x26c	;  0x26c
    2032:	08 95       	ret
    2034:	50 58       	subi	r21, 0x80	; 128
    2036:	bb 27       	eor	r27, r27
    2038:	aa 27       	eor	r26, r26
    203a:	0e d0       	rcall	.+28     	;  0x2058
    203c:	75 c1       	rjmp	.+746    	;  0x2328
    203e:	66 d1       	rcall	.+716    	;  0x230c
    2040:	30 f0       	brcs	.+12     	;  0x204e
    2042:	6b d1       	rcall	.+726    	;  0x231a
    2044:	20 f0       	brcs	.+8      	;  0x204e
    2046:	31 f4       	brne	.+12     	;  0x2054
    2048:	9f 3f       	cpi	r25, 0xFF	; 255
    204a:	11 f4       	brne	.+4      	;  0x2050
    204c:	1e f4       	brtc	.+6      	;  0x2054
    204e:	5b c1       	rjmp	.+694    	;  0x2306
    2050:	0e f4       	brtc	.+2      	;  0x2054
    2052:	e0 95       	com	r30
    2054:	e7 fb       	bst	r30, 7
    2056:	51 c1       	rjmp	.+674    	;  0x22fa
    2058:	e9 2f       	mov	r30, r25
    205a:	77 d1       	rcall	.+750    	;  0x234a
    205c:	80 f3       	brcs	.-32     	;  0x203e
    205e:	ba 17       	cp	r27, r26
    2060:	62 07       	cpc	r22, r18
    2062:	73 07       	cpc	r23, r19
    2064:	84 07       	cpc	r24, r20
    2066:	95 07       	cpc	r25, r21
    2068:	18 f0       	brcs	.+6      	;  0x2070
    206a:	71 f4       	brne	.+28     	;  0x2088
    206c:	9e f5       	brtc	.+102    	;  0x20d4
    206e:	8f c1       	rjmp	.+798    	;  0x238e
    2070:	0e f4       	brtc	.+2      	;  0x2074
    2072:	e0 95       	com	r30
    2074:	0b 2e       	mov	r0, r27
    2076:	ba 2f       	mov	r27, r26
    2078:	a0 2d       	mov	r26, r0
    207a:	0b 01       	movw	r0, r22
    207c:	b9 01       	movw	r22, r18
    207e:	90 01       	movw	r18, r0
    2080:	0c 01       	movw	r0, r24
    2082:	ca 01       	movw	r24, r20
    2084:	a0 01       	movw	r20, r0
    2086:	11 24       	eor	r1, r1
    2088:	ff 27       	eor	r31, r31
    208a:	59 1b       	sub	r21, r25
    208c:	99 f0       	breq	.+38     	;  0x20b4
    208e:	59 3f       	cpi	r21, 0xF9	; 249
    2090:	50 f4       	brcc	.+20     	;  0x20a6
    2092:	50 3e       	cpi	r21, 0xE0	; 224
    2094:	68 f1       	brcs	.+90     	;  0x20f0
    2096:	1a 16       	cp	r1, r26
    2098:	f0 40       	sbci	r31, 0x00	; 0
    209a:	a2 2f       	mov	r26, r18
    209c:	23 2f       	mov	r18, r19
    209e:	34 2f       	mov	r19, r20
    20a0:	44 27       	eor	r20, r20
    20a2:	58 5f       	subi	r21, 0xF8	; 248
    20a4:	f3 cf       	rjmp	.-26     	;  0x208c
    20a6:	46 95       	lsr	r20
    20a8:	37 95       	ror	r19
    20aa:	27 95       	ror	r18
    20ac:	a7 95       	ror	r26
    20ae:	f0 40       	sbci	r31, 0x00	; 0
    20b0:	53 95       	inc	r21
    20b2:	c9 f7       	brne	.-14     	;  0x20a6
    20b4:	7e f4       	brtc	.+30     	;  0x20d4
    20b6:	1f 16       	cp	r1, r31
    20b8:	ba 0b       	sbc	r27, r26
    20ba:	62 0b       	sbc	r22, r18
    20bc:	73 0b       	sbc	r23, r19
    20be:	84 0b       	sbc	r24, r20
    20c0:	ba f0       	brmi	.+46     	;  0x20f0
    20c2:	91 50       	subi	r25, 0x01	; 1
    20c4:	a1 f0       	breq	.+40     	;  0x20ee
    20c6:	ff 0f       	add	r31, r31
    20c8:	bb 1f       	adc	r27, r27
    20ca:	66 1f       	adc	r22, r22
    20cc:	77 1f       	adc	r23, r23
    20ce:	88 1f       	adc	r24, r24
    20d0:	c2 f7       	brpl	.-16     	;  0x20c2
    20d2:	0e c0       	rjmp	.+28     	;  0x20f0
    20d4:	ba 0f       	add	r27, r26
    20d6:	62 1f       	adc	r22, r18
    20d8:	73 1f       	adc	r23, r19
    20da:	84 1f       	adc	r24, r20
    20dc:	48 f4       	brcc	.+18     	;  0x20f0
    20de:	87 95       	ror	r24
    20e0:	77 95       	ror	r23
    20e2:	67 95       	ror	r22
    20e4:	b7 95       	ror	r27
    20e6:	f7 95       	ror	r31
    20e8:	9e 3f       	cpi	r25, 0xFE	; 254
    20ea:	08 f0       	brcs	.+2      	;  0x20ee
    20ec:	b3 cf       	rjmp	.-154    	;  0x2054
    20ee:	93 95       	inc	r25
    20f0:	88 0f       	add	r24, r24
    20f2:	08 f0       	brcs	.+2      	;  0x20f6
    20f4:	99 27       	eor	r25, r25
    20f6:	ee 0f       	add	r30, r30
    20f8:	97 95       	ror	r25
    20fa:	87 95       	ror	r24
    20fc:	08 95       	ret
    20fe:	d9 d0       	rcall	.+434    	;  0x22b2
    2100:	08 f4       	brcc	.+2      	;  0x2104
    2102:	81 e0       	ldi	r24, 0x01	; 1
    2104:	08 95       	ret
    2106:	0c d0       	rcall	.+24     	;  0x2120
    2108:	0f c1       	rjmp	.+542    	;  0x2328
    210a:	07 d1       	rcall	.+526    	;  0x231a
    210c:	40 f0       	brcs	.+16     	;  0x211e
    210e:	fe d0       	rcall	.+508    	;  0x230c
    2110:	30 f0       	brcs	.+12     	;  0x211e
    2112:	21 f4       	brne	.+8      	;  0x211c
    2114:	5f 3f       	cpi	r21, 0xFF	; 255
    2116:	19 f0       	breq	.+6      	;  0x211e
    2118:	f0 c0       	rjmp	.+480    	;  0x22fa
    211a:	51 11       	cpse	r21, r1
    211c:	39 c1       	rjmp	.+626    	;  0x2390
    211e:	f3 c0       	rjmp	.+486    	;  0x2306
    2120:	14 d1       	rcall	.+552    	;  0x234a
    2122:	98 f3       	brcs	.-26     	;  0x210a
    2124:	99 23       	and	r25, r25
    2126:	c9 f3       	breq	.-14     	;  0x211a
    2128:	55 23       	and	r21, r21
    212a:	b1 f3       	breq	.-20     	;  0x2118
    212c:	95 1b       	sub	r25, r21
    212e:	55 0b       	sbc	r21, r21
    2130:	bb 27       	eor	r27, r27
    2132:	aa 27       	eor	r26, r26
    2134:	62 17       	cp	r22, r18
    2136:	73 07       	cpc	r23, r19
    2138:	84 07       	cpc	r24, r20
    213a:	38 f0       	brcs	.+14     	;  0x214a
    213c:	9f 5f       	subi	r25, 0xFF	; 255
    213e:	5f 4f       	sbci	r21, 0xFF	; 255
    2140:	22 0f       	add	r18, r18
    2142:	33 1f       	adc	r19, r19
    2144:	44 1f       	adc	r20, r20
    2146:	aa 1f       	adc	r26, r26
    2148:	a9 f3       	breq	.-22     	;  0x2134
    214a:	33 d0       	rcall	.+102    	;  0x21b2
    214c:	0e 2e       	mov	r0, r30
    214e:	3a f0       	brmi	.+14     	;  0x215e
    2150:	e0 e8       	ldi	r30, 0x80	; 128
    2152:	30 d0       	rcall	.+96     	;  0x21b4
    2154:	91 50       	subi	r25, 0x01	; 1
    2156:	50 40       	sbci	r21, 0x00	; 0
    2158:	e6 95       	lsr	r30
    215a:	00 1c       	adc	r0, r0
    215c:	ca f7       	brpl	.-14     	;  0x2150
    215e:	29 d0       	rcall	.+82     	;  0x21b2
    2160:	fe 2f       	mov	r31, r30
    2162:	27 d0       	rcall	.+78     	;  0x21b2
    2164:	66 0f       	add	r22, r22
    2166:	77 1f       	adc	r23, r23
    2168:	88 1f       	adc	r24, r24
    216a:	bb 1f       	adc	r27, r27
    216c:	26 17       	cp	r18, r22
    216e:	37 07       	cpc	r19, r23
    2170:	48 07       	cpc	r20, r24
    2172:	ab 07       	cpc	r26, r27
    2174:	b0 e8       	ldi	r27, 0x80	; 128
    2176:	09 f0       	breq	.+2      	;  0x217a
    2178:	bb 0b       	sbc	r27, r27
    217a:	80 2d       	mov	r24, r0
    217c:	bf 01       	movw	r22, r30
    217e:	ff 27       	eor	r31, r31
    2180:	93 58       	subi	r25, 0x83	; 131
    2182:	5f 4f       	sbci	r21, 0xFF	; 255
    2184:	2a f0       	brmi	.+10     	;  0x2190
    2186:	9e 3f       	cpi	r25, 0xFE	; 254
    2188:	51 05       	cpc	r21, r1
    218a:	68 f0       	brcs	.+26     	;  0x21a6
    218c:	b6 c0       	rjmp	.+364    	;  0x22fa
    218e:	00 c1       	rjmp	.+512    	;  0x2390
    2190:	5f 3f       	cpi	r21, 0xFF	; 255
    2192:	ec f3       	brlt	.-6      	;  0x218e
    2194:	98 3e       	cpi	r25, 0xE8	; 232
    2196:	dc f3       	brlt	.-10     	;  0x218e
    2198:	86 95       	lsr	r24
    219a:	77 95       	ror	r23
    219c:	67 95       	ror	r22
    219e:	b7 95       	ror	r27
    21a0:	f7 95       	ror	r31
    21a2:	9f 5f       	subi	r25, 0xFF	; 255
    21a4:	c9 f7       	brne	.-14     	;  0x2198
    21a6:	88 0f       	add	r24, r24
    21a8:	91 1d       	adc	r25, r1
    21aa:	96 95       	lsr	r25
    21ac:	87 95       	ror	r24
    21ae:	97 f9       	bld	r25, 7
    21b0:	08 95       	ret
    21b2:	e1 e0       	ldi	r30, 0x01	; 1
    21b4:	66 0f       	add	r22, r22
    21b6:	77 1f       	adc	r23, r23
    21b8:	88 1f       	adc	r24, r24
    21ba:	bb 1f       	adc	r27, r27
    21bc:	62 17       	cp	r22, r18
    21be:	73 07       	cpc	r23, r19
    21c0:	84 07       	cpc	r24, r20
    21c2:	ba 07       	cpc	r27, r26
    21c4:	20 f0       	brcs	.+8      	;  0x21ce
    21c6:	62 1b       	sub	r22, r18
    21c8:	73 0b       	sbc	r23, r19
    21ca:	84 0b       	sbc	r24, r20
    21cc:	ba 0b       	sbc	r27, r26
    21ce:	ee 1f       	adc	r30, r30
    21d0:	88 f7       	brcc	.-30     	;  0x21b4
    21d2:	e0 95       	com	r30
    21d4:	08 95       	ret
    21d6:	04 d0       	rcall	.+8      	;  0x21e0
    21d8:	68 94       	set
    21da:	b1 11       	cpse	r27, r1
    21dc:	d9 c0       	rjmp	.+434    	;  0x2390
    21de:	08 95       	ret
    21e0:	bc d0       	rcall	.+376    	;  0x235a
    21e2:	88 f0       	brcs	.+34     	;  0x2206
    21e4:	9f 57       	subi	r25, 0x7F	; 127
    21e6:	90 f0       	brcs	.+36     	;  0x220c
    21e8:	b9 2f       	mov	r27, r25
    21ea:	99 27       	eor	r25, r25
    21ec:	b7 51       	subi	r27, 0x17	; 23
    21ee:	a0 f0       	brcs	.+40     	;  0x2218
    21f0:	d1 f0       	breq	.+52     	;  0x2226
    21f2:	66 0f       	add	r22, r22
    21f4:	77 1f       	adc	r23, r23
    21f6:	88 1f       	adc	r24, r24
    21f8:	99 1f       	adc	r25, r25
    21fa:	1a f0       	brmi	.+6      	;  0x2202
    21fc:	ba 95       	dec	r27
    21fe:	c9 f7       	brne	.-14     	;  0x21f2
    2200:	12 c0       	rjmp	.+36     	;  0x2226
    2202:	b1 30       	cpi	r27, 0x01	; 1
    2204:	81 f0       	breq	.+32     	;  0x2226
    2206:	c3 d0       	rcall	.+390    	;  0x238e
    2208:	b1 e0       	ldi	r27, 0x01	; 1
    220a:	08 95       	ret
    220c:	c0 c0       	rjmp	.+384    	;  0x238e
    220e:	67 2f       	mov	r22, r23
    2210:	78 2f       	mov	r23, r24
    2212:	88 27       	eor	r24, r24
    2214:	b8 5f       	subi	r27, 0xF8	; 248
    2216:	39 f0       	breq	.+14     	;  0x2226
    2218:	b9 3f       	cpi	r27, 0xF9	; 249
    221a:	cc f3       	brlt	.-14     	;  0x220e
    221c:	86 95       	lsr	r24
    221e:	77 95       	ror	r23
    2220:	67 95       	ror	r22
    2222:	b3 95       	inc	r27
    2224:	d9 f7       	brne	.-10     	;  0x221c
    2226:	3e f4       	brtc	.+14     	;  0x2236
    2228:	90 95       	com	r25
    222a:	80 95       	com	r24
    222c:	70 95       	com	r23
    222e:	61 95       	neg	r22
    2230:	7f 4f       	sbci	r23, 0xFF	; 255
    2232:	8f 4f       	sbci	r24, 0xFF	; 255
    2234:	9f 4f       	sbci	r25, 0xFF	; 255
    2236:	08 95       	ret
    2238:	e8 94       	clt
    223a:	09 c0       	rjmp	.+18     	;  0x224e
    223c:	97 fb       	bst	r25, 7
    223e:	3e f4       	brtc	.+14     	;  0x224e
    2240:	90 95       	com	r25
    2242:	80 95       	com	r24
    2244:	70 95       	com	r23
    2246:	61 95       	neg	r22
    2248:	7f 4f       	sbci	r23, 0xFF	; 255
    224a:	8f 4f       	sbci	r24, 0xFF	; 255
    224c:	9f 4f       	sbci	r25, 0xFF	; 255
    224e:	99 23       	and	r25, r25
    2250:	a9 f0       	breq	.+42     	;  0x227c
    2252:	f9 2f       	mov	r31, r25
    2254:	96 e9       	ldi	r25, 0x96	; 150
    2256:	bb 27       	eor	r27, r27
    2258:	93 95       	inc	r25
    225a:	f6 95       	lsr	r31
    225c:	87 95       	ror	r24
    225e:	77 95       	ror	r23
    2260:	67 95       	ror	r22
    2262:	b7 95       	ror	r27
    2264:	f1 11       	cpse	r31, r1
    2266:	f8 cf       	rjmp	.-16     	;  0x2258
    2268:	fa f4       	brpl	.+62     	;  0x22a8
    226a:	bb 0f       	add	r27, r27
    226c:	11 f4       	brne	.+4      	;  0x2272
    226e:	60 ff       	sbrs	r22, 0
    2270:	1b c0       	rjmp	.+54     	;  0x22a8
    2272:	6f 5f       	subi	r22, 0xFF	; 255
    2274:	7f 4f       	sbci	r23, 0xFF	; 255
    2276:	8f 4f       	sbci	r24, 0xFF	; 255
    2278:	9f 4f       	sbci	r25, 0xFF	; 255
    227a:	16 c0       	rjmp	.+44     	;  0x22a8
    227c:	88 23       	and	r24, r24
    227e:	11 f0       	breq	.+4      	;  0x2284
    2280:	96 e9       	ldi	r25, 0x96	; 150
    2282:	11 c0       	rjmp	.+34     	;  0x22a6
    2284:	77 23       	and	r23, r23
    2286:	21 f0       	breq	.+8      	;  0x2290
    2288:	9e e8       	ldi	r25, 0x8E	; 142
    228a:	87 2f       	mov	r24, r23
    228c:	76 2f       	mov	r23, r22
    228e:	05 c0       	rjmp	.+10     	;  0x229a
    2290:	66 23       	and	r22, r22
    2292:	71 f0       	breq	.+28     	;  0x22b0
    2294:	96 e8       	ldi	r25, 0x86	; 134
    2296:	86 2f       	mov	r24, r22
    2298:	70 e0       	ldi	r23, 0x00	; 0
    229a:	60 e0       	ldi	r22, 0x00	; 0
    229c:	2a f0       	brmi	.+10     	;  0x22a8
    229e:	9a 95       	dec	r25
    22a0:	66 0f       	add	r22, r22
    22a2:	77 1f       	adc	r23, r23
    22a4:	88 1f       	adc	r24, r24
    22a6:	da f7       	brpl	.-10     	;  0x229e
    22a8:	88 0f       	add	r24, r24
    22aa:	96 95       	lsr	r25
    22ac:	87 95       	ror	r24
    22ae:	97 f9       	bld	r25, 7
    22b0:	08 95       	ret
    22b2:	99 0f       	add	r25, r25
    22b4:	00 08       	sbc	r0, r0
    22b6:	55 0f       	add	r21, r21
    22b8:	aa 0b       	sbc	r26, r26
    22ba:	e0 e8       	ldi	r30, 0x80	; 128
    22bc:	fe ef       	ldi	r31, 0xFE	; 254
    22be:	16 16       	cp	r1, r22
    22c0:	17 06       	cpc	r1, r23
    22c2:	e8 07       	cpc	r30, r24
    22c4:	f9 07       	cpc	r31, r25
    22c6:	c0 f0       	brcs	.+48     	;  0x22f8
    22c8:	12 16       	cp	r1, r18
    22ca:	13 06       	cpc	r1, r19
    22cc:	e4 07       	cpc	r30, r20
    22ce:	f5 07       	cpc	r31, r21
    22d0:	98 f0       	brcs	.+38     	;  0x22f8
    22d2:	62 1b       	sub	r22, r18
    22d4:	73 0b       	sbc	r23, r19
    22d6:	84 0b       	sbc	r24, r20
    22d8:	95 0b       	sbc	r25, r21
    22da:	39 f4       	brne	.+14     	;  0x22ea
    22dc:	0a 26       	eor	r0, r26
    22de:	61 f0       	breq	.+24     	;  0x22f8
    22e0:	23 2b       	or	r18, r19
    22e2:	24 2b       	or	r18, r20
    22e4:	25 2b       	or	r18, r21
    22e6:	21 f4       	brne	.+8      	;  0x22f0
    22e8:	08 95       	ret
    22ea:	0a 26       	eor	r0, r26
    22ec:	09 f4       	brne	.+2      	;  0x22f0
    22ee:	a1 40       	sbci	r26, 0x01	; 1
    22f0:	a6 95       	lsr	r26
    22f2:	8f ef       	ldi	r24, 0xFF	; 255
    22f4:	81 1d       	adc	r24, r1
    22f6:	81 1d       	adc	r24, r1
    22f8:	08 95       	ret
    22fa:	97 f9       	bld	r25, 7
    22fc:	9f 67       	ori	r25, 0x7F	; 127
    22fe:	80 e8       	ldi	r24, 0x80	; 128
    2300:	70 e0       	ldi	r23, 0x00	; 0
    2302:	60 e0       	ldi	r22, 0x00	; 0
    2304:	08 95       	ret
    2306:	9f ef       	ldi	r25, 0xFF	; 255
    2308:	80 ec       	ldi	r24, 0xC0	; 192
    230a:	08 95       	ret
    230c:	00 24       	eor	r0, r0
    230e:	0a 94       	dec	r0
    2310:	16 16       	cp	r1, r22
    2312:	17 06       	cpc	r1, r23
    2314:	18 06       	cpc	r1, r24
    2316:	09 06       	cpc	r0, r25
    2318:	08 95       	ret
    231a:	00 24       	eor	r0, r0
    231c:	0a 94       	dec	r0
    231e:	12 16       	cp	r1, r18
    2320:	13 06       	cpc	r1, r19
    2322:	14 06       	cpc	r1, r20
    2324:	05 06       	cpc	r0, r21
    2326:	08 95       	ret
    2328:	09 2e       	mov	r0, r25
    232a:	03 94       	inc	r0
    232c:	00 0c       	add	r0, r0
    232e:	11 f4       	brne	.+4      	;  0x2334
    2330:	88 23       	and	r24, r24
    2332:	52 f0       	brmi	.+20     	;  0x2348
    2334:	bb 0f       	add	r27, r27
    2336:	40 f4       	brcc	.+16     	;  0x2348
    2338:	bf 2b       	or	r27, r31
    233a:	11 f4       	brne	.+4      	;  0x2340
    233c:	60 ff       	sbrs	r22, 0
    233e:	04 c0       	rjmp	.+8      	;  0x2348
    2340:	6f 5f       	subi	r22, 0xFF	; 255
    2342:	7f 4f       	sbci	r23, 0xFF	; 255
    2344:	8f 4f       	sbci	r24, 0xFF	; 255
    2346:	9f 4f       	sbci	r25, 0xFF	; 255
    2348:	08 95       	ret
    234a:	57 fd       	sbrc	r21, 7
    234c:	90 58       	subi	r25, 0x80	; 128
    234e:	44 0f       	add	r20, r20
    2350:	55 1f       	adc	r21, r21
    2352:	59 f0       	breq	.+22     	;  0x236a
    2354:	5f 3f       	cpi	r21, 0xFF	; 255
    2356:	71 f0       	breq	.+28     	;  0x2374
    2358:	47 95       	ror	r20
    235a:	88 0f       	add	r24, r24
    235c:	97 fb       	bst	r25, 7
    235e:	99 1f       	adc	r25, r25
    2360:	61 f0       	breq	.+24     	;  0x237a
    2362:	9f 3f       	cpi	r25, 0xFF	; 255
    2364:	79 f0       	breq	.+30     	;  0x2384
    2366:	87 95       	ror	r24
    2368:	08 95       	ret
    236a:	12 16       	cp	r1, r18
    236c:	13 06       	cpc	r1, r19
    236e:	14 06       	cpc	r1, r20
    2370:	55 1f       	adc	r21, r21
    2372:	f2 cf       	rjmp	.-28     	;  0x2358
    2374:	46 95       	lsr	r20
    2376:	f1 df       	rcall	.-30     	;  0x235a
    2378:	08 c0       	rjmp	.+16     	;  0x238a
    237a:	16 16       	cp	r1, r22
    237c:	17 06       	cpc	r1, r23
    237e:	18 06       	cpc	r1, r24
    2380:	99 1f       	adc	r25, r25
    2382:	f1 cf       	rjmp	.-30     	;  0x2366
    2384:	86 95       	lsr	r24
    2386:	71 05       	cpc	r23, r1
    2388:	61 05       	cpc	r22, r1
    238a:	08 94       	sec
    238c:	08 95       	ret
    238e:	e8 94       	clt
    2390:	bb 27       	eor	r27, r27
    2392:	66 27       	eor	r22, r22
    2394:	77 27       	eor	r23, r23
    2396:	cb 01       	movw	r24, r22
    2398:	97 f9       	bld	r25, 7
    239a:	08 95       	ret
    239c:	8a df       	rcall	.-236    	;  0x22b2
    239e:	08 f4       	brcc	.+2      	;  0x23a2
    23a0:	8f ef       	ldi	r24, 0xFF	; 255
    23a2:	08 95       	ret
    23a4:	0b d0       	rcall	.+22     	;  0x23bc
    23a6:	c0 cf       	rjmp	.-128    	;  0x2328
    23a8:	b1 df       	rcall	.-158    	;  0x230c
    23aa:	28 f0       	brcs	.+10     	;  0x23b6
    23ac:	b6 df       	rcall	.-148    	;  0x231a
    23ae:	18 f0       	brcs	.+6      	;  0x23b6
    23b0:	95 23       	and	r25, r21
    23b2:	09 f0       	breq	.+2      	;  0x23b6
    23b4:	a2 cf       	rjmp	.-188    	;  0x22fa
    23b6:	a7 cf       	rjmp	.-178    	;  0x2306
    23b8:	11 24       	eor	r1, r1
    23ba:	ea cf       	rjmp	.-44     	;  0x2390
    23bc:	c6 df       	rcall	.-116    	;  0x234a
    23be:	a0 f3       	brcs	.-24     	;  0x23a8
    23c0:	95 9f       	mul	r25, r21
    23c2:	d1 f3       	breq	.-12     	;  0x23b8
    23c4:	95 0f       	add	r25, r21
    23c6:	50 e0       	ldi	r21, 0x00	; 0
    23c8:	55 1f       	adc	r21, r21
    23ca:	62 9f       	mul	r22, r18
    23cc:	f0 01       	movw	r30, r0
    23ce:	72 9f       	mul	r23, r18
    23d0:	bb 27       	eor	r27, r27
    23d2:	f0 0d       	add	r31, r0
    23d4:	b1 1d       	adc	r27, r1
    23d6:	63 9f       	mul	r22, r19
    23d8:	aa 27       	eor	r26, r26
    23da:	f0 0d       	add	r31, r0
    23dc:	b1 1d       	adc	r27, r1
    23de:	aa 1f       	adc	r26, r26
    23e0:	64 9f       	mul	r22, r20
    23e2:	66 27       	eor	r22, r22
    23e4:	b0 0d       	add	r27, r0
    23e6:	a1 1d       	adc	r26, r1
    23e8:	66 1f       	adc	r22, r22
    23ea:	82 9f       	mul	r24, r18
    23ec:	22 27       	eor	r18, r18
    23ee:	b0 0d       	add	r27, r0
    23f0:	a1 1d       	adc	r26, r1
    23f2:	62 1f       	adc	r22, r18
    23f4:	73 9f       	mul	r23, r19
    23f6:	b0 0d       	add	r27, r0
    23f8:	a1 1d       	adc	r26, r1
    23fa:	62 1f       	adc	r22, r18
    23fc:	83 9f       	mul	r24, r19
    23fe:	a0 0d       	add	r26, r0
    2400:	61 1d       	adc	r22, r1
    2402:	22 1f       	adc	r18, r18
    2404:	74 9f       	mul	r23, r20
    2406:	33 27       	eor	r19, r19
    2408:	a0 0d       	add	r26, r0
    240a:	61 1d       	adc	r22, r1
    240c:	23 1f       	adc	r18, r19
    240e:	84 9f       	mul	r24, r20
    2410:	60 0d       	add	r22, r0
    2412:	21 1d       	adc	r18, r1
    2414:	82 2f       	mov	r24, r18
    2416:	76 2f       	mov	r23, r22
    2418:	6a 2f       	mov	r22, r26
    241a:	11 24       	eor	r1, r1
    241c:	9f 57       	subi	r25, 0x7F	; 127
    241e:	50 40       	sbci	r21, 0x00	; 0
    2420:	8a f0       	brmi	.+34     	;  0x2444
    2422:	e1 f0       	breq	.+56     	;  0x245c
    2424:	88 23       	and	r24, r24
    2426:	4a f0       	brmi	.+18     	;  0x243a
    2428:	ee 0f       	add	r30, r30
    242a:	ff 1f       	adc	r31, r31
    242c:	bb 1f       	adc	r27, r27
    242e:	66 1f       	adc	r22, r22
    2430:	77 1f       	adc	r23, r23
    2432:	88 1f       	adc	r24, r24
    2434:	91 50       	subi	r25, 0x01	; 1
    2436:	50 40       	sbci	r21, 0x00	; 0
    2438:	a9 f7       	brne	.-22     	;  0x2424
    243a:	9e 3f       	cpi	r25, 0xFE	; 254
    243c:	51 05       	cpc	r21, r1
    243e:	70 f0       	brcs	.+28     	;  0x245c
    2440:	5c cf       	rjmp	.-328    	;  0x22fa
    2442:	a6 cf       	rjmp	.-180    	;  0x2390
    2444:	5f 3f       	cpi	r21, 0xFF	; 255
    2446:	ec f3       	brlt	.-6      	;  0x2442
    2448:	98 3e       	cpi	r25, 0xE8	; 232
    244a:	dc f3       	brlt	.-10     	;  0x2442
    244c:	86 95       	lsr	r24
    244e:	77 95       	ror	r23
    2450:	67 95       	ror	r22
    2452:	b7 95       	ror	r27
    2454:	f7 95       	ror	r31
    2456:	e7 95       	ror	r30
    2458:	9f 5f       	subi	r25, 0xFF	; 255
    245a:	c1 f7       	brne	.-16     	;  0x244c
    245c:	fe 2b       	or	r31, r30
    245e:	88 0f       	add	r24, r24
    2460:	91 1d       	adc	r25, r1
    2462:	96 95       	lsr	r25
    2464:	87 95       	ror	r24
    2466:	97 f9       	bld	r25, 7
    2468:	08 95       	ret
    246a:	23 df       	rcall	.-442    	;  0x22b2
    246c:	88 0b       	sbc	r24, r24
    246e:	99 0b       	sbc	r25, r25
    2470:	08 95       	ret
    2472:	62 9f       	mul	r22, r18
    2474:	d0 01       	movw	r26, r0
    2476:	73 9f       	mul	r23, r19
    2478:	f0 01       	movw	r30, r0
    247a:	82 9f       	mul	r24, r18
    247c:	e0 0d       	add	r30, r0
    247e:	f1 1d       	adc	r31, r1
    2480:	64 9f       	mul	r22, r20
    2482:	e0 0d       	add	r30, r0
    2484:	f1 1d       	adc	r31, r1
    2486:	92 9f       	mul	r25, r18
    2488:	f0 0d       	add	r31, r0
    248a:	83 9f       	mul	r24, r19
    248c:	f0 0d       	add	r31, r0
    248e:	74 9f       	mul	r23, r20
    2490:	f0 0d       	add	r31, r0
    2492:	65 9f       	mul	r22, r21
    2494:	f0 0d       	add	r31, r0
    2496:	99 27       	eor	r25, r25
    2498:	72 9f       	mul	r23, r18
    249a:	b0 0d       	add	r27, r0
    249c:	e1 1d       	adc	r30, r1
    249e:	f9 1f       	adc	r31, r25
    24a0:	63 9f       	mul	r22, r19
    24a2:	b0 0d       	add	r27, r0
    24a4:	e1 1d       	adc	r30, r1
    24a6:	f9 1f       	adc	r31, r25
    24a8:	bd 01       	movw	r22, r26
    24aa:	cf 01       	movw	r24, r30
    24ac:	11 24       	eor	r1, r1
    24ae:	08 95       	ret
    24b0:	a1 e2       	ldi	r26, 0x21	; 33
    24b2:	1a 2e       	mov	r1, r26
    24b4:	aa 1b       	sub	r26, r26
    24b6:	bb 1b       	sub	r27, r27
    24b8:	fd 01       	movw	r30, r26
    24ba:	0d c0       	rjmp	.+26     	;  0x24d6
    24bc:	aa 1f       	adc	r26, r26
    24be:	bb 1f       	adc	r27, r27
    24c0:	ee 1f       	adc	r30, r30
    24c2:	ff 1f       	adc	r31, r31
    24c4:	a2 17       	cp	r26, r18
    24c6:	b3 07       	cpc	r27, r19
    24c8:	e4 07       	cpc	r30, r20
    24ca:	f5 07       	cpc	r31, r21
    24cc:	20 f0       	brcs	.+8      	;  0x24d6
    24ce:	a2 1b       	sub	r26, r18
    24d0:	b3 0b       	sbc	r27, r19
    24d2:	e4 0b       	sbc	r30, r20
    24d4:	f5 0b       	sbc	r31, r21
    24d6:	66 1f       	adc	r22, r22
    24d8:	77 1f       	adc	r23, r23
    24da:	88 1f       	adc	r24, r24
    24dc:	99 1f       	adc	r25, r25
    24de:	1a 94       	dec	r1
    24e0:	69 f7       	brne	.-38     	;  0x24bc
    24e2:	60 95       	com	r22
    24e4:	70 95       	com	r23
    24e6:	80 95       	com	r24
    24e8:	90 95       	com	r25
    24ea:	9b 01       	movw	r18, r22
    24ec:	ac 01       	movw	r20, r24
    24ee:	bd 01       	movw	r22, r26
    24f0:	cf 01       	movw	r24, r30
    24f2:	08 95       	ret
    24f4:	97 fb       	bst	r25, 7
    24f6:	09 2e       	mov	r0, r25
    24f8:	05 26       	eor	r0, r21
    24fa:	0e d0       	rcall	.+28     	;  0x2518
    24fc:	57 fd       	sbrc	r21, 7
    24fe:	04 d0       	rcall	.+8      	;  0x2508
    2500:	d7 df       	rcall	.-82     	;  0x24b0
    2502:	0a d0       	rcall	.+20     	;  0x2518
    2504:	00 1c       	adc	r0, r0
    2506:	38 f4       	brcc	.+14     	;  0x2516
    2508:	50 95       	com	r21
    250a:	40 95       	com	r20
    250c:	30 95       	com	r19
    250e:	21 95       	neg	r18
    2510:	3f 4f       	sbci	r19, 0xFF	; 255
    2512:	4f 4f       	sbci	r20, 0xFF	; 255
    2514:	5f 4f       	sbci	r21, 0xFF	; 255
    2516:	08 95       	ret
    2518:	f6 f7       	brtc	.-4      	;  0x2516
    251a:	90 95       	com	r25
    251c:	80 95       	com	r24
    251e:	70 95       	com	r23
    2520:	61 95       	neg	r22
    2522:	7f 4f       	sbci	r23, 0xFF	; 255
    2524:	8f 4f       	sbci	r24, 0xFF	; 255
    2526:	9f 4f       	sbci	r25, 0xFF	; 255
    2528:	08 95       	ret
    252a:	ee 0f       	add	r30, r30
    252c:	ff 1f       	adc	r31, r31
    252e:	05 90       	lpm	r0, Z+
    2530:	f4 91       	lpm	r31, Z+
    2532:	e0 2d       	mov	r30, r0
    2534:	09 94       	ijmp
    2536:	2f 92       	push	r2
    2538:	3f 92       	push	r3
    253a:	4f 92       	push	r4
    253c:	5f 92       	push	r5
    253e:	6f 92       	push	r6
    2540:	7f 92       	push	r7
    2542:	8f 92       	push	r8
    2544:	9f 92       	push	r9
    2546:	af 92       	push	r10
    2548:	bf 92       	push	r11
    254a:	cf 92       	push	r12
    254c:	df 92       	push	r13
    254e:	ef 92       	push	r14
    2550:	ff 92       	push	r15
    2552:	0f 93       	push	r16
    2554:	1f 93       	push	r17
    2556:	cf 93       	push	r28
    2558:	df 93       	push	r29
    255a:	cd b7       	in	r28, 0x3d	; 61
    255c:	de b7       	in	r29, 0x3e	; 62
    255e:	ca 1b       	sub	r28, r26
    2560:	db 0b       	sbc	r29, r27
    2562:	0f b6       	in	r0, 0x3f	; 63
    2564:	f8 94       	cli
    2566:	de bf       	out	0x3e, r29	; 62
    2568:	0f be       	out	0x3f, r0	; 63
    256a:	cd bf       	out	0x3d, r28	; 61
    256c:	09 94       	ijmp
    256e:	2a 88       	ldd	r2, Y+18	; 0x12
    2570:	39 88       	ldd	r3, Y+17	; 0x11
    2572:	48 88       	ldd	r4, Y+16	; 0x10
    2574:	5f 84       	ldd	r5, Y+15	; 0x0f
    2576:	6e 84       	ldd	r6, Y+14	; 0x0e
    2578:	7d 84       	ldd	r7, Y+13	; 0x0d
    257a:	8c 84       	ldd	r8, Y+12	; 0x0c
    257c:	9b 84       	ldd	r9, Y+11	; 0x0b
    257e:	aa 84       	ldd	r10, Y+10	; 0x0a
    2580:	b9 84       	ldd	r11, Y+9	; 0x09
    2582:	c8 84       	ldd	r12, Y+8	; 0x08
    2584:	df 80       	ldd	r13, Y+7	; 0x07
    2586:	ee 80       	ldd	r14, Y+6	; 0x06
    2588:	fd 80       	ldd	r15, Y+5	; 0x05
    258a:	0c 81       	ldd	r16, Y+4	; 0x04
    258c:	1b 81       	ldd	r17, Y+3	; 0x03
    258e:	aa 81       	ldd	r26, Y+2	; 0x02
    2590:	b9 81       	ldd	r27, Y+1	; 0x01
    2592:	ce 0f       	add	r28, r30
    2594:	d1 1d       	adc	r29, r1
    2596:	0f b6       	in	r0, 0x3f	; 63
    2598:	f8 94       	cli
    259a:	de bf       	out	0x3e, r29	; 62
    259c:	0f be       	out	0x3f, r0	; 63
    259e:	cd bf       	out	0x3d, r28	; 61
    25a0:	ed 01       	movw	r28, r26
    25a2:	08 95       	ret
    25a4:	f8 94       	cli
    25a6:	ff cf       	rjmp	.-2      	;  0x25a6
